 SpeedTreeForest_Windows_v7.1

 Timestamp is 594c310f (Thu Jun 22 23:05:19 2017)

 Preferred load address is 10000000

 Start         Length     Name                   Class
 0001:00000000 0002b262H .text                   CODE
 0001:0002b270 00000fbcH .text$x                 CODE
 0001:0002c230 00000835H .text$yc                CODE
 0002:00000000 00000148H .idata$5                DATA
 0002:00000148 00000004H .CRT$XCA                DATA
 0002:0000014c 00000084H .CRT$XCU                DATA
 0002:000001d0 00000004H .CRT$XCZ                DATA
 0002:000001d4 00000004H .CRT$XIA                DATA
 0002:000001d8 00000004H .CRT$XIAA               DATA
 0002:000001dc 00000004H .CRT$XIC                DATA
 0002:000001e0 00000004H .CRT$XIZ                DATA
 0002:000001f0 00000d08H .rdata                  DATA
 0002:00000ef8 00000087H .rdata$debug            DATA
 0002:00000f80 00000118H .rdata$sxdata           DATA
 0002:00001098 00000004H .rtc$IAA                DATA
 0002:0000109c 00000004H .rtc$IZZ                DATA
 0002:000010a0 00000004H .rtc$TAA                DATA
 0002:000010a4 00000004H .rtc$TZZ                DATA
 0002:000010a8 00000e2cH .xdata$x                DATA
 0002:00001ed4 0000003cH .idata$2                DATA
 0002:00001f10 00000014H .idata$3                DATA
 0002:00001f24 00000148H .idata$4                DATA
 0002:0000206c 00000876H .idata$6                DATA
 0002:000028f0 00010703H .edata                  DATA
 0003:00000000 00000040H .data                   DATA
 0003:00000040 00000534H .bss                    DATA

  Address         Publics by Value              Rva+Base       Lib:Object

 0000:00000000       __except_list              00000000     <absolute>
 0000:00000046       ___safe_se_handler_count   00000046     <absolute>
 0000:00009876       __fltused                  00009876     <absolute>
 0000:00009876       __ldused                   00009876     <absolute>
 0000:00000000       ___ImageBase               10000000     <linker-defined>
 0001:00000000       ??4st_float16@SpeedTree@@QAEAAV01@ABV01@@Z 10001000 f i Culling.obj
 0001:00000020       ??0st_float16@SpeedTree@@QAE@XZ 10001020 f i Culling.obj
 0001:00000050       ??0st_float16@SpeedTree@@QAE@M@Z 10001050 f i Culling.obj
 0001:00000140       ??0st_float16@SpeedTree@@QAE@ABV01@@Z 10001140 f i Culling.obj
 0001:00000160       ??Bst_float16@SpeedTree@@QBEMXZ 10001160 f i Culling.obj
 0001:00000240       ??4Vec2@SpeedTree@@QAEAAV01@ABV01@@Z 10001240 f i Culling.obj
 0001:00000260       ??4Vec3@SpeedTree@@QAEAAV01@ABV01@@Z 10001260 f i Culling.obj
 0001:00000290       ??4Vec4@SpeedTree@@QAEAAV01@ABV01@@Z 10001290 f i Culling.obj
 0001:000002c0       ??0Vec2@SpeedTree@@QAE@XZ  100012c0 f i Culling.obj
 0001:000002e0       ??0Vec2@SpeedTree@@QAE@MM@Z 100012e0 f i Culling.obj
 0001:00000310       ??0Vec2@SpeedTree@@QAE@QBM@Z 10001310 f i Culling.obj
 0001:00000340       ??HVec2@SpeedTree@@QBE?AV01@ABV01@@Z 10001340 f i Culling.obj
 0001:00000380       ??YVec2@SpeedTree@@QAE?AV01@ABV01@@Z 10001380 f i Culling.obj
 0001:000003d0       ??8Vec2@SpeedTree@@QBE_NABV01@@Z 100013d0 f i Culling.obj
 0001:00000420       ?Set@Vec2@SpeedTree@@QAEXMM@Z 10001420 f i Culling.obj
 0001:00000440       ?Distance@Vec2@SpeedTree@@QBEMABV12@@Z 10001440 f i Culling.obj
 0001:000004a0       ??0Vec3@SpeedTree@@QAE@XZ  100014a0 f i Culling.obj
 0001:000004d0       ??0Vec3@SpeedTree@@QAE@MMM@Z 100014d0 f i Culling.obj
 0001:00000500       ??0Vec3@SpeedTree@@QAE@MM@Z 10001500 f i Culling.obj
 0001:00000530       ??0Vec3@SpeedTree@@QAE@QBM@Z 10001530 f i Culling.obj
 0001:00000570       ??AVec3@SpeedTree@@QAEAAMH@Z 10001570 f i Culling.obj
 0001:00000590       ??BVec3@SpeedTree@@QAEPAMXZ 10001590 f i Culling.obj
 0001:000005a0       ??BVec3@SpeedTree@@QBEPBMXZ 100015a0 f i Culling.obj
 0001:000005b0       ??MVec3@SpeedTree@@QBE_NABV01@@Z 100015b0 f i Culling.obj
 0001:00000670       ??8Vec3@SpeedTree@@QBE_NABV01@@Z 10001670 f i Culling.obj
 0001:000006d0       ??9Vec3@SpeedTree@@QBE_NABV01@@Z 100016d0 f i Culling.obj
 0001:00000730       ??GVec3@SpeedTree@@QBE?AV01@ABV01@@Z 10001730 f i Culling.obj
 0001:00000790       ??HVec3@SpeedTree@@QBE?AV01@ABV01@@Z 10001790 f i Culling.obj
 0001:000007f0       ??YVec3@SpeedTree@@QAE?AV01@ABV01@@Z 100017f0 f i Culling.obj
 0001:00000850       ??DVec3@SpeedTree@@QBE?AV01@ABV01@@Z 10001850 f i Culling.obj
 0001:000008b0       ??XVec3@SpeedTree@@QAE?AV01@ABV01@@Z 100018b0 f i Culling.obj
 0001:00000910       ??KVec3@SpeedTree@@QBE?AV01@ABV01@@Z 10001910 f i Culling.obj
 0001:00000970       ??_0Vec3@SpeedTree@@QAE?AV01@ABV01@@Z 10001970 f i Culling.obj
 0001:000009d0       ??DVec3@SpeedTree@@QBE?AV01@M@Z 100019d0 f i Culling.obj
 0001:00000a20       ??XVec3@SpeedTree@@QAE?AV01@M@Z 10001a20 f i Culling.obj
 0001:00000a80       ??KVec3@SpeedTree@@QBE?AV01@M@Z 10001a80 f i Culling.obj
 0001:00000ad0       ??_0Vec3@SpeedTree@@QAE?AV01@M@Z 10001ad0 f i Culling.obj
 0001:00000b30       ??GVec3@SpeedTree@@QBE?AV01@XZ 10001b30 f i Culling.obj
 0001:00000b80       ?Set@Vec3@SpeedTree@@QAEXMMM@Z 10001b80 f i Culling.obj
 0001:00000bb0       ?Set@Vec3@SpeedTree@@QAEXMM@Z 10001bb0 f i Culling.obj
 0001:00000be0       ?Set@Vec3@SpeedTree@@QAEXQBM@Z 10001be0 f i Culling.obj
 0001:00000c10       ?Cross@Vec3@SpeedTree@@QBE?AV12@ABV12@@Z 10001c10 f i Culling.obj
 0001:00000c90       ?Distance@Vec3@SpeedTree@@QBEMABV12@@Z 10001c90 f i Culling.obj
 0001:00000ce0       ?DistanceSquared@Vec3@SpeedTree@@QBEMABV12@@Z 10001ce0 f i Culling.obj
 0001:00000d10       ?Dot@Vec3@SpeedTree@@QBEMABV12@@Z 10001d10 f i Culling.obj
 0001:00000d50       ?Magnitude@Vec3@SpeedTree@@QBEMXZ 10001d50 f i Culling.obj
 0001:00000d80       ?MagnitudeSquared@Vec3@SpeedTree@@QBEMXZ 10001d80 f i Culling.obj
 0001:00000dc0       ?Normalize@Vec3@SpeedTree@@QAE?AV12@XZ 10001dc0 f i Culling.obj
 0001:00000e40       ?Scale@Vec3@SpeedTree@@QAEXM@Z 10001e40 f i Culling.obj
 0001:00000e80       ??0Vec4@SpeedTree@@QAE@XZ  10001e80 f i Culling.obj
 0001:00000eb0       ??0Vec4@SpeedTree@@QAE@MMMM@Z 10001eb0 f i Culling.obj
 0001:00000ef0       ??0Vec4@SpeedTree@@QAE@MMM@Z 10001ef0 f i Culling.obj
 0001:00000f30       ??0Vec4@SpeedTree@@QAE@MM@Z 10001f30 f i Culling.obj
 0001:00000f70       ??0Vec4@SpeedTree@@QAE@ABVVec3@1@M@Z 10001f70 f i Culling.obj
 0001:00000fb0       ??0Vec4@SpeedTree@@QAE@QBM@Z 10001fb0 f i Culling.obj
 0001:00000ff0       ??AVec4@SpeedTree@@QAEAAMH@Z 10001ff0 f i Culling.obj
 0001:00001010       ??BVec4@SpeedTree@@QAEPAMXZ 10002010 f i Culling.obj
 0001:00001020       ??BVec4@SpeedTree@@QBEPBMXZ 10002020 f i Culling.obj
 0001:00001030       ??8Vec4@SpeedTree@@QBE_NABV01@@Z 10002030 f i Culling.obj
 0001:000010b0       ??9Vec4@SpeedTree@@QBE_NABV01@@Z 100020b0 f i Culling.obj
 0001:00001130       ??DVec4@SpeedTree@@QBE?AV01@ABV01@@Z 10002130 f i Culling.obj
 0001:000011a0       ??DVec4@SpeedTree@@QBE?AV01@M@Z 100021a0 f i Culling.obj
 0001:00001210       ??XVec4@SpeedTree@@QAE?AV01@M@Z 10002210 f i Culling.obj
 0001:00001280       ??KVec4@SpeedTree@@QBE?AV01@M@Z 10002280 f i Culling.obj
 0001:000012f0       ??_0Vec4@SpeedTree@@QAE?AV01@M@Z 100022f0 f i Culling.obj
 0001:00001360       ??HVec4@SpeedTree@@QBE?AV01@ABV01@@Z 10002360 f i Culling.obj
 0001:000013d0       ?Set@Vec4@SpeedTree@@QAEXMMMM@Z 100023d0 f i Culling.obj
 0001:00001400       ?Set@Vec4@SpeedTree@@QAEXMMM@Z 10002400 f i Culling.obj
 0001:00001430       ?Set@Vec4@SpeedTree@@QAEXMM@Z 10002430 f i Culling.obj
 0001:00001450       ?Set@Vec4@SpeedTree@@QAEXQBM@Z 10002450 f i Culling.obj
 0001:00001490       ??4Mat3x3@SpeedTree@@QAEAAV01@ABV01@@Z 10002490 f i Culling.obj
 0001:000014c0       ??_FMat3x3@SpeedTree@@QAEXXZ 100024c0 f i Culling.obj
 0001:00001500       ??_FMat4x4@SpeedTree@@QAEXXZ 10002500 f i Culling.obj
 0001:00001550       ??0Mat3x3@SpeedTree@@QAE@_N@Z 10002550 f i Culling.obj
 0001:00001590       ??0Mat3x3@SpeedTree@@QAE@QBM@Z 10002590 f i Culling.obj
 0001:000015c0       ??0Mat3x3@SpeedTree@@QAE@ABVVec3@1@00@Z 100025c0 f i Culling.obj
 0001:00001640       ??BMat3x3@SpeedTree@@QAEPAMXZ 10002640 f i Culling.obj
 0001:00001650       ??BMat3x3@SpeedTree@@QBEPBMXZ 10002650 f i Culling.obj
 0001:00001660       ??DMat3x3@SpeedTree@@QBE?AV01@ABV01@@Z 10002660 f i Culling.obj
 0001:000017b0       ??DMat3x3@SpeedTree@@QBE?AVVec3@1@ABV21@@Z 100027b0 f i Culling.obj
 0001:00001860       ??8Mat3x3@SpeedTree@@QBE_NABV01@@Z 10002860 f i Culling.obj
 0001:00001890       ??9Mat3x3@SpeedTree@@QBE_NABV01@@Z 10002890 f i Culling.obj
 0001:000018c0       ?SetIdentity@Mat3x3@SpeedTree@@QAEXXZ 100028c0 f i Culling.obj
 0001:00001900       ?Set@Mat3x3@SpeedTree@@QAEXQBM@Z 10002900 f i Culling.obj
 0001:00001920       ?RotateX@Mat3x3@SpeedTree@@QAEXM@Z 10002920 f i Culling.obj
 0001:000019d0       ?RotateY@Mat3x3@SpeedTree@@QAEXM@Z 100029d0 f i Culling.obj
 0001:00001a80       ?RotateZ@Mat3x3@SpeedTree@@QAEXM@Z 10002a80 f i Culling.obj
 0001:00001b30       ?RotateArbitrary@Mat3x3@SpeedTree@@QAEXABVVec3@2@M@Z 10002b30 f i Culling.obj
 0001:00001cf0       ?Scale@Mat3x3@SpeedTree@@QAEXMMM@Z 10002cf0 f i Culling.obj
 0001:00001d90       ?Scale@Mat3x3@SpeedTree@@QAEXABVVec3@2@@Z 10002d90 f i Culling.obj
 0001:00001dd0       ??0Mat4x4@SpeedTree@@QAE@_N@Z 10002dd0 f i Culling.obj
 0001:00001e20       ??0Mat4x4@SpeedTree@@QAE@QBM@Z 10002e20 f i Culling.obj
 0001:00001e50       ??0Mat4x4@SpeedTree@@QAE@MMMMMMMMMMMMMMMM@Z 10002e50 f i Culling.obj
 0001:00001f70       ??BMat4x4@SpeedTree@@QAEPAMXZ 10002f70 f i Culling.obj
 0001:00001f80       ??BMat4x4@SpeedTree@@QBEPBMXZ 10002f80 f i Culling.obj
 0001:00001f90       ??DMat4x4@SpeedTree@@QBE?AV01@ABV01@@Z 10002f90 f i Culling.obj
 0001:00002190       ??XMat4x4@SpeedTree@@QAE?AV01@ABV01@@Z 10003190 f i Culling.obj
 0001:00002350       ??DMat4x4@SpeedTree@@QBE?AVVec3@1@ABV21@@Z 10003350 f i Culling.obj
 0001:00002420       ??DMat4x4@SpeedTree@@QBE?AVVec4@1@ABV21@@Z 10003420 f i Culling.obj
 0001:00002540       ??8Mat4x4@SpeedTree@@QBE_NABV01@@Z 10003540 f i Culling.obj
 0001:00002570       ??9Mat4x4@SpeedTree@@QBE_NABV01@@Z 10003570 f i Culling.obj
 0001:000025a0       ??4Mat4x4@SpeedTree@@QAEAAV01@ABV01@@Z 100035a0 f i Culling.obj
 0001:000025d0       ?SetIdentity@Mat4x4@SpeedTree@@QAEXXZ 100035d0 f i Culling.obj
 0001:00002610       ?Set@Mat4x4@SpeedTree@@QAEXQBM@Z 10003610 f i Culling.obj
 0001:00002630       ?Set@Mat4x4@SpeedTree@@QAEXMMMMMMMMMMMMMMMM@Z 10003630 f i Culling.obj
 0001:00002750       ?GetVectorComponents@Mat4x4@SpeedTree@@QAEXAAVVec3@2@00@Z 10003750 f i Culling.obj
 0001:00002800       ?Invert@Mat4x4@SpeedTree@@QBE_NAAV12@@Z 10003800 f i Culling.obj
 0001:00002d60       ?Multiply4f@Mat4x4@SpeedTree@@QBEXQBMQAM@Z 10003d60 f i Culling.obj
 0001:00002e60       ?RotateX@Mat4x4@SpeedTree@@QAEXM@Z 10003e60 f i Culling.obj
 0001:00002f30       ?RotateY@Mat4x4@SpeedTree@@QAEXM@Z 10003f30 f i Culling.obj
 0001:00003000       ?RotateZ@Mat4x4@SpeedTree@@QAEXM@Z 10004000 f i Culling.obj
 0001:000030d0       ?RotateArbitrary@Mat4x4@SpeedTree@@QAEXABVVec3@2@M@Z 100040d0 f i Culling.obj
 0001:000032a0       ?Scale@Mat4x4@SpeedTree@@QAEXMMM@Z 100042a0 f i Culling.obj
 0001:00003330       ?Scale@Mat4x4@SpeedTree@@QAEXABVVec3@2@@Z 10004330 f i Culling.obj
 0001:00003370       ?Translate@Mat4x4@SpeedTree@@QAEXMMM@Z 10004370 f i Culling.obj
 0001:00003400       ?Translate@Mat4x4@SpeedTree@@QAEXABVVec3@2@@Z 10004400 f i Culling.obj
 0001:00003440       ?Transpose@Mat4x4@SpeedTree@@QBE?AV12@XZ 10004440 f i Culling.obj
 0001:00003570       ?LookAt@Mat4x4@SpeedTree@@QAEXABVVec3@2@00@Z 10004570 f i Culling.obj
 0001:00003730       ?Ortho@Mat4x4@SpeedTree@@QAEXMMMMMM_N@Z 10004730 f i Culling.obj
 0001:00003880       ?Frustum@Mat4x4@SpeedTree@@QAEXMMMMMM@Z 10004880 f i Culling.obj
 0001:000039a0       ?Perspective@Mat4x4@SpeedTree@@QAEXMMMM@Z 100049a0 f i Culling.obj
 0001:00003aa0       ?AdjustPerspectiveNearAndFar@Mat4x4@SpeedTree@@QAEXMM@Z 10004aa0 f i Culling.obj
 0001:00003ae0       ??1CCoordSysBase@SpeedTree@@UAE@XZ 10004ae0 f i Culling.obj
 0001:00003b00       ?ConvertToStd@CCoordSysBase@SpeedTree@@QBE?AVVec3@2@QBM@Z 10004b00 f i Culling.obj
 0001:00003b40       ?ConvertFromStd@CCoordSysBase@SpeedTree@@QBE?AVVec3@2@QBM@Z 10004b40 f i Culling.obj
 0001:00003b80       ??0CCoordSysBase@SpeedTree@@QAE@XZ 10004b80 f i Culling.obj
 0001:00003ba0       ??0CCoordSysBase@SpeedTree@@QAE@ABV01@@Z 10004ba0 f i Culling.obj
 0001:00003bc0       ??4CCoordSysBase@SpeedTree@@QAEAAV01@ABV01@@Z 10004bc0 f i Culling.obj
 0001:00003bd0       ??_GCCoordSysBase@SpeedTree@@UAEPAXI@Z 10004bd0 f i Culling.obj
 0001:00003c00       ??_ECCoordSysBase@SpeedTree@@UAEPAXI@Z 10004c00 f i Culling.obj
 0001:00003c70       ??4CCoordSys@SpeedTree@@QAEAAV01@ABV01@@Z 10004c70 f i Culling.obj
 0001:00003c80       ??4CExtents@SpeedTree@@QAEAAV01@ABV01@@Z 10004c80 f i Culling.obj
 0001:00003cc0       ??0CExtents@SpeedTree@@QAE@XZ 10004cc0 f i Culling.obj
 0001:00003d60       ??0CExtents@SpeedTree@@QAE@QBM@Z 10004d60 f i Culling.obj
 0001:00003dd0       ??0CExtents@SpeedTree@@QAE@ABVVec3@1@0@Z 10004dd0 f i Culling.obj
 0001:00003e10       ??1CExtents@SpeedTree@@QAE@XZ 10004e10 f i Culling.obj
 0001:00003e20       ?Reset@CExtents@SpeedTree@@QAEXXZ 10004e20 f i Culling.obj
 0001:00003e80       ?SetToZeros@CExtents@SpeedTree@@QAEXXZ 10004e80 f i Culling.obj
 0001:00003ed0       ?Order@CExtents@SpeedTree@@QAEXXZ 10004ed0 f i Culling.obj
 0001:00003f80       ?Valid@CExtents@SpeedTree@@QBE_NXZ 10004f80 f i Culling.obj
 0001:00004020       ?ExpandAround@CExtents@SpeedTree@@QAEXQBM@Z 10005020 f i Culling.obj
 0001:00004160       ?ExpandAround@CExtents@SpeedTree@@QAEXABVVec3@2@@Z 10005160 f i Culling.obj
 0001:000042a0       ?ExpandAround@CExtents@SpeedTree@@QAEXABVVec3@2@M@Z 100052a0 f i Culling.obj
 0001:000044b0       ?ExpandAround@CExtents@SpeedTree@@QAEXABV12@@Z 100054b0 f i Culling.obj
 0001:00004670       ?Scale@CExtents@SpeedTree@@QAEXM@Z 10005670 f i Culling.obj
 0001:000046b0       ?Translate@CExtents@SpeedTree@@QAEXABVVec3@2@@Z 100056b0 f i Culling.obj
 0001:000046f0       ?Orient@CExtents@SpeedTree@@QAEXABVVec3@2@0@Z 100056f0 f i Culling.obj
 0001:00004ba0       ?Rotate@CExtents@SpeedTree@@QAEXM@Z 10005ba0 f i Culling.obj
 0001:00004d70       ?ComputeRadiusFromCenter3D@CExtents@SpeedTree@@QBEMXZ 10005d70 f i Culling.obj
 0001:00004dc0       ?ComputeRadiusSquaredFromCenter3D@CExtents@SpeedTree@@QBEMXZ 10005dc0 f i Culling.obj
 0001:00004e10       ?ComputeRadiusFromCenter2D@CExtents@SpeedTree@@QBEMXZ 10005e10 f i Culling.obj
 0001:00004e80       ?Min@CExtents@SpeedTree@@QBEABVVec3@2@XZ 10005e80 f i Culling.obj
 0001:00004e90       ?Max@CExtents@SpeedTree@@QBEABVVec3@2@XZ 10005e90 f i Culling.obj
 0001:00004eb0       ?Midpoint@CExtents@SpeedTree@@QBEMI@Z 10005eb0 f i Culling.obj
 0001:00004ee0       ?GetCenter@CExtents@SpeedTree@@QBE?AVVec3@2@XZ 10005ee0 f i Culling.obj
 0001:00004f20       ?GetDiagonal@CExtents@SpeedTree@@QBE?AVVec3@2@XZ 10005f20 f i Culling.obj
 0001:00004f70       ?GetHeight@CExtents@SpeedTree@@QBEMXZ 10005f70 f i Culling.obj
 0001:00004f90       ??BCExtents@SpeedTree@@QAEPAMXZ 10005f90 f i Culling.obj
 0001:00004fa0       ??BCExtents@SpeedTree@@QBEPBMXZ 10005fa0 f i Culling.obj
 0001:00004fb0       ??1CAllocator@SpeedTree@@UAE@XZ 10005fb0 f i Culling.obj
 0001:00004fd0       ??0CAllocator@SpeedTree@@QAE@XZ 10005fd0 f i Culling.obj
 0001:00004ff0       ??0CAllocator@SpeedTree@@QAE@ABV01@@Z 10005ff0 f i Culling.obj
 0001:00005010       ??4CAllocator@SpeedTree@@QAEAAV01@ABV01@@Z 10006010 f i Culling.obj
 0001:00005020       ??_GCAllocator@SpeedTree@@UAEPAXI@Z 10006020 f i Culling.obj
 0001:00005050       ??_ECAllocator@SpeedTree@@UAEPAXI@Z 10006050 f i Culling.obj
 0001:000050c0       ??4CHeapSystem@SpeedTree@@QAEAAV01@ABV01@@Z 100060c0 f i Culling.obj
 0001:000050d0       ??4SBranchWindLevel@CWind@SpeedTree@@QAEAAU012@ABU012@@Z 100060d0 f i Culling.obj
 0001:00005100       ??4SWindGroup@CWind@SpeedTree@@QAEAAU012@ABU012@@Z 10006100 f i Culling.obj
 0001:00005130       ??0SParams@CWind@SpeedTree@@QAE@ABU012@@Z 10006130 f i Culling.obj
 0001:000053b0       ??4SParams@CWind@SpeedTree@@QAEAAU012@ABU012@@Z 100063b0 f i Culling.obj
 0001:000053e0       ??0CWind@SpeedTree@@QAE@ABV01@@Z 100063e0 f i Culling.obj
 0001:00005670       ??4CWind@SpeedTree@@QAEAAV01@ABV01@@Z 10006670 f i Culling.obj
 0001:000056a0       ?SetParams@CWind@SpeedTree@@QAEXABUSParams@12@@Z 100066a0 f i Culling.obj
 0001:000056c0       ?GetParams@CWind@SpeedTree@@QBEABUSParams@12@XZ 100066c0 f i Culling.obj
 0001:000056d0       ?EnableGusting@CWind@SpeedTree@@QAEX_N@Z 100066d0 f i Culling.obj
 0001:000056f0       ?SetGustFrequency@CWind@SpeedTree@@QAEXM@Z 100066f0 f i Culling.obj
 0001:00005710       ?SetTreeValues@CWind@SpeedTree@@QAEXABVVec3@2@M@Z 10006710 f i Culling.obj
 0001:00005760       ?GetBranchAnchor@CWind@SpeedTree@@QBEPBMXZ 10006760 f i Culling.obj
 0001:00005780       ?GetMaxBranchLength@CWind@SpeedTree@@QBEMXZ 10006780 f i Culling.obj
 0001:000057a0       ?Normalize@CWind@SpeedTree@@IAEXPAM@Z 100067a0 f i Culling.obj
 0001:00005850       ?SetOption@CWind@SpeedTree@@QAEXW4EOptions@12@_N@Z 10006850 f i Culling.obj
 0001:00005870       ?IsOptionEnabled@CWind@SpeedTree@@QBE_NW4EOptions@12@@Z 10006870 f i Culling.obj
 0001:00005890       ?IsGlobalWindEnabled@CWind@SpeedTree@@QBE_NXZ 10006890 f i Culling.obj
 0001:000058e0       ?IsBranchWindEnabled@CWind@SpeedTree@@QBE_NXZ 100068e0 f i Culling.obj
 0001:00005930       ?GetShaderTable@CWind@SpeedTree@@QBEPBMXZ 10006930 f i Culling.obj
 0001:00005950       ??4?$Enumeration@W4EVertexFormatUntyped@SpeedTree@@D@SpeedTree@@QAEAAU01@ABU01@@Z 10006950 f i Culling.obj
 0001:00005970       ??4?$Enumeration@W4EVertexPropertyUntyped@SpeedTree@@D@SpeedTree@@QAEAAU01@ABU01@@Z 10006970 f i Culling.obj
 0001:00005990       ??4?$Enumeration@W4EVertexComponentUntyped@SpeedTree@@D@SpeedTree@@QAEAAU01@ABU01@@Z 10006990 f i Culling.obj
 0001:000059b0       ??4SAttribute@SVertexDecl@SpeedTree@@QAEAAU012@ABU012@@Z 100069b0 f i Culling.obj
 0001:000059e0       ??4?$Enumeration@W4EVertexAttributeUntyped@SpeedTree@@D@SpeedTree@@QAEAAU01@ABU01@@Z 100069e0 f i Culling.obj
 0001:00005a00       ??4SProperty@SVertexDecl@SpeedTree@@QAEAAU012@ABU012@@Z 10006a00 f i Culling.obj
 0001:00005a30       ??0SPropertyComponent@SAttribDesc@SVertexDecl@SpeedTree@@QAE@XZ 10006a30 f i Culling.obj
 0001:00005a60       ??4SPropertyComponent@SAttribDesc@SVertexDecl@SpeedTree@@QAEAAU0123@ABU0123@@Z 10006a60 f i Culling.obj
 0001:00005a80       ??0SAttribDesc@SVertexDecl@SpeedTree@@QAE@XZ 10006a80 f i Culling.obj
 0001:00005af0       ??4SAttribDesc@SVertexDecl@SpeedTree@@QAEAAU012@ABU012@@Z 10006af0 f i Culling.obj
 0001:00005b20       ??4SVertexDecl@SpeedTree@@QAEAAU01@ABU01@@Z 10006b20 f i Culling.obj
 0001:00005b50       ??4?$CPaddedPtr@$$CBD@SpeedTree@@QAEAAV01@ABV01@@Z 10006b50 f i Culling.obj
 0001:00005b70       ??_F?$CPaddedPtr@$$CBD@SpeedTree@@QAEXXZ 10006b70 f i Culling.obj
 0001:00005b90       ??1SRenderState@SpeedTree@@QAE@XZ 10006b90 f i Culling.obj
 0001:00005bb0       ??4SRenderState@SpeedTree@@QAEAAU01@ABU01@@Z 10006bb0 f i Culling.obj
 0001:00005be0       ??4SVerticalBillboards@SpeedTree@@QAEAAU01@ABU01@@Z 10006be0 f i Culling.obj
 0001:00005c10       ??4SHorizontalBillboard@SpeedTree@@QAEAAU01@ABU01@@Z 10006c10 f i Culling.obj
 0001:00005c40       ??4SCollisionObject@SpeedTree@@QAEAAU01@ABU01@@Z 10006c40 f i Culling.obj
 0001:00005c70       ??4?$CPaddedPtr@USRenderState@SpeedTree@@@SpeedTree@@QAEAAV01@ABV01@@Z 10006c70 f i Culling.obj
 0001:00005c90       ??_F?$CPaddedPtr@USRenderState@SpeedTree@@@SpeedTree@@QAEXXZ 10006c90 f i Culling.obj
 0001:00005cb0       ??4?$CPaddedPtr@E@SpeedTree@@QAEAAV01@ABV01@@Z 10006cb0 f i Culling.obj
 0001:00005cd0       ??_F?$CPaddedPtr@E@SpeedTree@@QAEXXZ 10006cd0 f i Culling.obj
 0001:00005cf0       ??4SDrawCall@SpeedTree@@QAEAAU01@ABU01@@Z 10006cf0 f i Culling.obj
 0001:00005d20       ??4SBone@SpeedTree@@QAEAAU01@ABU01@@Z 10006d20 f i Culling.obj
 0001:00005d50       ??4?$CPaddedPtr@USDrawCall@SpeedTree@@@SpeedTree@@QAEAAV01@ABV01@@Z 10006d50 f i Culling.obj
 0001:00005d70       ??_F?$CPaddedPtr@USDrawCall@SpeedTree@@@SpeedTree@@QAEXXZ 10006d70 f i Culling.obj
 0001:00005d90       ??4?$CPaddedPtr@USBone@SpeedTree@@@SpeedTree@@QAEAAV01@ABV01@@Z 10006d90 f i Culling.obj
 0001:00005db0       ??_F?$CPaddedPtr@USBone@SpeedTree@@@SpeedTree@@QAEXXZ 10006db0 f i Culling.obj
 0001:00005dd0       ??4SLod@SpeedTree@@QAEAAU01@ABU01@@Z 10006dd0 f i Culling.obj
 0001:00005e10       ??4?$CPaddedPtr@USLod@SpeedTree@@@SpeedTree@@QAEAAV01@ABV01@@Z 10006e10 f i Culling.obj
 0001:00005e30       ??_F?$CPaddedPtr@USLod@SpeedTree@@@SpeedTree@@QAEXXZ 10006e30 f i Culling.obj
 0001:00005e50       ??4SGeometry@SpeedTree@@QAEAAU01@ABU01@@Z 10006e50 f i Culling.obj
 0001:00005e80       ??4SLodProfile@SpeedTree@@QAEAAU01@ABU01@@Z 10006e80 f i Culling.obj
 0001:00005eb0       ??4CAllocatorInterface@SpeedTree@@QAEAAV01@ABV01@@Z 10006eb0 f i Culling.obj
 0001:00005ec0       ??4CFileSystemInterface@SpeedTree@@QAEAAV01@ABV01@@Z 10006ec0 f i Culling.obj
 0001:00005ed0       ??0SHueVariationParams@CCore@SpeedTree@@QAE@XZ 10006ed0 f i Culling.obj
 0001:00005f10       ??4SHueVariationParams@CCore@SpeedTree@@QAEAAU012@ABU012@@Z 10006f10 f i Culling.obj
 0001:00005f50       ??4SResourceStats@CCore@SpeedTree@@QAEAAU012@ABU012@@Z 10006f50 f i Culling.obj
 0001:00005f80       ??0SResourceSummary@CCore@SpeedTree@@QAE@XZ 10006f80 f i Culling.obj
 0001:00005fd0       ??4SResourceSummary@CCore@SpeedTree@@QAEAAU012@ABU012@@Z 10006fd0 f i Culling.obj
 0001:00006000       ??_G?$CBasicFixedString@$0BAA@@SpeedTree@@UAEPAXI@Z 10007000 f i Culling.obj
 0001:00006030       ??_E?$CBasicFixedString@$0BAA@@SpeedTree@@UAEPAXI@Z 10007030 f i Culling.obj
 0001:000060a0       ??4CCore@SpeedTree@@QAEAAV01@ABV01@@Z 100070a0 f i Culling.obj
 0001:00006290       ??0SLodProfile@SpeedTree@@QAE@XZ 10007290 f i Culling.obj
 0001:000062f0       ?IsValid@SLodProfile@SpeedTree@@QBE_NXZ 100072f0 f i Culling.obj
 0001:00006380       ?ComputeDerived@SLodProfile@SpeedTree@@QAEXXZ 10007380 f i Culling.obj
 0001:000063b0       ?Scale@SLodProfile@SpeedTree@@QAEXM@Z 100073b0 f i Culling.obj
 0001:00006400       ?Square@SLodProfile@SpeedTree@@QBEXAAU12@@Z 10007400 f i Culling.obj
 0001:00006480       ??BSLodProfile@SpeedTree@@QBEPBMXZ 10007480 f i Culling.obj
 0001:00006490       ?GetFilename@CCore@SpeedTree@@QBEPBDXZ 10007490 f i Culling.obj
 0001:000064b0       ?GetGeometry@CCore@SpeedTree@@QBEPBUSGeometry@2@XZ 100074b0 f i Culling.obj
 0001:000064d0       ?GetExtents@CCore@SpeedTree@@QBEABVCExtents@2@XZ 100074d0 f i Culling.obj
 0001:000064f0       ?IsLoadedAsGrassModel@CCore@SpeedTree@@QBE_NXZ 100074f0 f i Culling.obj
 0001:00006510       ?AreTexCoordsFlipped@CCore@SpeedTree@@QBE_NXZ 10007510 f i Culling.obj
 0001:00006530       ?GetLodProfile@CCore@SpeedTree@@QBEABUSLodProfile@2@XZ 10007530 f i Culling.obj
 0001:00006550       ?GetLodProfileSquared@CCore@SpeedTree@@QBEABUSLodProfile@2@XZ 10007550 f i Culling.obj
 0001:00006570       ?SetLodProfile@CCore@SpeedTree@@QAE_NABUSLodProfile@2@@Z 10007570 f i Culling.obj
 0001:000065e0       ?ComputeLodSnapshot@CCore@SpeedTree@@QBEHM@Z 100075e0 f i Culling.obj
 0001:00006680       ?ComputeLodByDistance@CCore@SpeedTree@@QBEMM@Z 10007680 f i Culling.obj
 0001:00006740       ?ComputeLodByDistanceSquared@CCore@SpeedTree@@QBEMM@Z 10007740 f i Culling.obj
 0001:00006800       ?ComputeLodTransition@CCore@SpeedTree@@SAMMH@Z 10007800 f i Culling.obj
 0001:000068b0       ?GetWind@CCore@SpeedTree@@QAEAAVCWind@2@XZ 100078b0 f i Culling.obj
 0001:000068d0       ?GetWind@CCore@SpeedTree@@QBEABVCWind@2@XZ 100078d0 f i Culling.obj
 0001:000068f0       ?GetWindShaderTable@CCore@SpeedTree@@QBEPBMXZ 100078f0 f i Culling.obj
 0001:00006910       ?GetCollisionObjects@CCore@SpeedTree@@QBEPBUSCollisionObject@2@AAH@Z 10007910 f i Culling.obj
 0001:00006940       ?SetHueVariationParams@CCore@SpeedTree@@QAEXABUSHueVariationParams@12@@Z 10007940 f i Culling.obj
 0001:00006980       ?GetHueVariationParams@CCore@SpeedTree@@QBEABUSHueVariationParams@12@XZ 10007980 f i Culling.obj
 0001:000069a0       ?SetAmbientImageScalar@CCore@SpeedTree@@QAEXM@Z 100079a0 f i Culling.obj
 0001:000069c0       ?GetAmbientImageScalar@CCore@SpeedTree@@QBEMXZ 100079c0 f i Culling.obj
 0001:000069e0       ?GetUserString@CCore@SpeedTree@@QBEPBDW4EUserStringOrdinal@12@@Z 100079e0 f i Culling.obj
 0001:00006a00       ?GetUserData@CCore@SpeedTree@@QBEPAXXZ 10007a00 f i Culling.obj
 0001:00006a20       ?SetUserData@CCore@SpeedTree@@QAEXPAX@Z 10007a20 f i Culling.obj
 0001:00006a40       ?UncompressVec3@CCore@SpeedTree@@SA?AVVec3@2@PBE@Z 10007a40 f i Culling.obj
 0001:00006ae0       ?UncompressScalar@CCore@SpeedTree@@SAME@Z 10007ae0 f i Culling.obj
 0001:00006b20       ?CompressScalar@CCore@SpeedTree@@SAEM@Z 10007b20 f i Culling.obj
 0001:00006b60       ?CompressVec3@CCore@SpeedTree@@SAXQAEABVVec3@2@@Z 10007b60 f i Culling.obj
 0001:00006c30       ?GetVertexPropertyDesc@CCore@SpeedTree@@SAABUSVertexPropertyDesc@2@U?$Enumeration@W4EVertexPropertyUntyped@SpeedTree@@D@2@@Z 10007c30 f i Culling.obj
 0001:00006c50       ?GetPixelPropertyDesc@CCore@SpeedTree@@SAABUSPixelPropertyDesc@2@W4EPixelProperty@2@@Z 10007c50 f i Culling.obj
 0001:00006c60       ?ComponentName@CCore@SpeedTree@@SAPBDH@Z 10007c60 f i Culling.obj
 0001:00006c90       ?SrtBuffer@CCore@SpeedTree@@IBEPBEXZ 10007c90 f i Culling.obj
 0001:00006cd0       ??0SRenderState@SpeedTree@@QAE@XZ 10007cd0 f i Culling.obj
 0001:00006fe0       ??8SRenderState@SpeedTree@@QBE_NABU01@@Z 10007fe0 f i Culling.obj
 0001:00007920       ??9SRenderState@SpeedTree@@QBE_NABU01@@Z 10008920 f i Culling.obj
 0001:00007950       ?IsPerPixelModelActive@SRenderState@SpeedTree@@QBE_NXZ 10008950 f i Culling.obj
 0001:00007990       ?IsLightingModelInTransition@SRenderState@SpeedTree@@QBE_NXZ 10008990 f i Culling.obj
 0001:000079b0       ?VertexShaderHashName@SRenderState@SpeedTree@@QBE?AV?$CBasicFixedString@$0BAA@@2@ABVCWind@2@W4EShadowConfig@12@@Z 100089b0 f i Culling.obj
 0001:000081d0       ?Get5xModeHashName@SpeedTree@@YA?AV?$CBasicFixedString@$0BAA@@1@ABUSRenderState@1@@Z 100091d0 f i Culling.obj
 0001:00008350       ?Base36@SpeedTree@@YA?AV?$CBasicFixedString@$0BAA@@1@I@Z 10009350 f i Culling.obj
 0001:00008560       ?WindStateHashName@SRenderState@SpeedTree@@QBE?AV?$CBasicFixedString@$0BAA@@2@ABVCWind@2@@Z 10009560 f i Culling.obj
 0001:00008ad0       ?PixelShaderHashName@SRenderState@SpeedTree@@QBE?AV?$CBasicFixedString@$0BAA@@2@W4EShadowConfig@12@@Z 10009ad0 f i Culling.obj
 0001:000090b0       ?GetPixelProperties@SRenderState@SpeedTree@@QBEXQA_N@Z 1000a0b0 f i Culling.obj
 0001:000093f0       ?GetInstanceType@SRenderState@SpeedTree@@QBE?AW4EInstanceType@SVertexDecl@2@XZ 1000a3f0 f i Culling.obj
 0001:00009490       ?ShaderGenHasFixedDecls@SRenderState@SpeedTree@@QBE_NXZ 1000a490 f i Culling.obj
 0001:000094e0       ?ShaderGenerationMode@SRenderState@SpeedTree@@QBE?AW4EShaderGenerationMode@2@XZ 1000a4e0 f i Culling.obj
 0001:00009500       ?IsTextureLayerPresent@SRenderState@SpeedTree@@QBE_NW4ETextureLayer@2@@Z 1000a500 f i Culling.obj
 0001:00009550       ?VertexDeclHash@SRenderState@SpeedTree@@ABE?AV?$CBasicFixedString@$0BAA@@2@XZ 1000a550 f i Culling.obj
 0001:00009630       ?PixelDeclHash@SRenderState@SpeedTree@@ABE?AV?$CBasicFixedString@$0BAA@@2@XZ 1000a630 f i Culling.obj
 0001:00009750       ?IsBranchWindEnabled@SRenderState@SpeedTree@@QBE_NXZ 1000a750 f i Culling.obj
 0001:000097d0       ?IsGlobalWindEnabled@SRenderState@SpeedTree@@QBE_NXZ 1000a7d0 f i Culling.obj
 0001:000097f0       ?IsFullWindEnabled@SRenderState@SpeedTree@@QBE_NXZ 1000a7f0 f i Culling.obj
 0001:00009840       ?MakeDepthOnly@SRenderState@SpeedTree@@QAEXXZ 1000a840 f i Culling.obj
 0001:00009890       ?MakeShadowCast@SRenderState@SpeedTree@@QAEXXZ 1000a890 f i Culling.obj
 0001:000098f0       ?HasOnlyBranches@SRenderState@SpeedTree@@QBE_NXZ 1000a8f0 f i Culling.obj
 0001:00009960       ?HasOnlyFronds@SRenderState@SpeedTree@@QBE_NXZ 1000a960 f i Culling.obj
 0001:000099d0       ?HasOnlyLeaves@SRenderState@SpeedTree@@QBE_N_N0@Z 1000a9d0 f i Culling.obj
 0001:00009b40       ?HasOnlyRigidMeshes@SRenderState@SpeedTree@@QBE_NXZ 1000ab40 f i Culling.obj
 0001:00009bb0       ??0SVerticalBillboards@SpeedTree@@QAE@XZ 1000abb0 f i Culling.obj
 0001:00009c30       ??1SVerticalBillboards@SpeedTree@@QAE@XZ 1000ac30 f i Culling.obj
 0001:00009c40       ??0SHorizontalBillboard@SpeedTree@@QAE@XZ 1000ac40 f i Culling.obj
 0001:00009cf0       ??1SHorizontalBillboard@SpeedTree@@QAE@XZ 1000acf0 f i Culling.obj
 0001:00009d00       ??0SCollisionObject@SpeedTree@@QAE@XZ 1000ad00 f i Culling.obj
 0001:00009d70       ??1SCollisionObject@SpeedTree@@QAE@XZ 1000ad70 f i Culling.obj
 0001:00009d80       ??0SDrawCall@SpeedTree@@QAE@XZ 1000ad80 f i Culling.obj
 0001:00009e00       ??1SDrawCall@SpeedTree@@QAE@XZ 1000ae00 f i Culling.obj
 0001:00009e10       ??0SBone@SpeedTree@@QAE@XZ 1000ae10 f i Culling.obj
 0001:00009ea0       ??0SLod@SpeedTree@@QAE@XZ  1000aea0 f i Culling.obj
 0001:00009f00       ??1SLod@SpeedTree@@QAE@XZ  1000af00 f i Culling.obj
 0001:00009f10       ??0SGeometry@SpeedTree@@QAE@XZ 1000af10 f i Culling.obj
 0001:0000a010       ??1SGeometry@SpeedTree@@QAE@XZ 1000b010 f i Culling.obj
 0001:0000a070       ?GetProperty@SDrawCall@SpeedTree@@QBE_NU?$Enumeration@W4EVertexPropertyUntyped@SpeedTree@@D@2@HQAM@Z 1000b070 f i Culling.obj
 0001:0000a260       ?GetProperty@SDrawCall@SpeedTree@@QBE_NU?$Enumeration@W4EVertexPropertyUntyped@SpeedTree@@D@2@HQAVst_float16@2@@Z 1000b260 f i Culling.obj
 0001:0000a470       ?GetProperty@SDrawCall@SpeedTree@@QBE_NU?$Enumeration@W4EVertexPropertyUntyped@SpeedTree@@D@2@HQAE@Z 1000b470 f i Culling.obj
 0001:0000a550       ?SetProperty@SDrawCall@SpeedTree@@QAE_NU?$Enumeration@W4EVertexPropertyUntyped@SpeedTree@@D@2@HQBM@Z 1000b550 f i Culling.obj
 0001:0000a630       ?SetProperty@SDrawCall@SpeedTree@@QAE_NU?$Enumeration@W4EVertexPropertyUntyped@SpeedTree@@D@2@HQBVst_float16@2@@Z 1000b630 f i Culling.obj
 0001:0000a710       ?SetProperty@SDrawCall@SpeedTree@@QAE_NU?$Enumeration@W4EVertexPropertyUntyped@SpeedTree@@D@2@HQBE@Z 1000b710 f i Culling.obj
 0001:0000a7f0       ??0SAttribute@SVertexDecl@SpeedTree@@QAE@XZ 1000b7f0 f i Culling.obj
 0001:0000a880       ?IsUsed@SAttribute@SVertexDecl@SpeedTree@@QBE_NXZ 1000b880 f i Culling.obj
 0001:0000a8d0       ?NumEmptyComponents@SAttribute@SVertexDecl@SpeedTree@@QBEHXZ 1000b8d0 f i Culling.obj
 0001:0000a930       ?NumUsedComponents@SAttribute@SVertexDecl@SpeedTree@@QBEHXZ 1000b930 f i Culling.obj
 0001:0000a950       ?Size@SAttribute@SVertexDecl@SpeedTree@@QBEHXZ 1000b950 f i Culling.obj
 0001:0000a9a0       ?Clear@SAttribute@SVertexDecl@SpeedTree@@QAEXXZ 1000b9a0 f i Culling.obj
 0001:0000aa00       ?FirstFreeComponent@SAttribute@SVertexDecl@SpeedTree@@QBE?AU?$Enumeration@W4EVertexComponentUntyped@SpeedTree@@D@3@XZ 1000ba00 f i Culling.obj
 0001:0000aa50       ??0SProperty@SVertexDecl@SpeedTree@@QAE@XZ 1000ba50 f i Culling.obj
 0001:0000ab10       ?IsPresent@SProperty@SVertexDecl@SpeedTree@@QBE_NXZ 1000bb10 f i Culling.obj
 0001:0000ab70       ?IsContiguous@SProperty@SVertexDecl@SpeedTree@@QBE_NXZ 1000bb70 f i Culling.obj
 0001:0000ac60       ?NumComponents@SProperty@SVertexDecl@SpeedTree@@QBEHXZ 1000bc60 f i Culling.obj
 0001:0000acb0       ??0SVertexDecl@SpeedTree@@QAE@XZ 1000bcb0 f i Culling.obj
 0001:0000ad30       ??9SVertexDecl@SpeedTree@@QBE_NABU01@@Z 1000bd30 f i Culling.obj
 0001:0000ad60       ??MSVertexDecl@SpeedTree@@QBE_NABU01@@Z 1000bd60 f i Culling.obj
 0001:0000ad90       ?FormatName@SVertexDecl@SpeedTree@@SAPBDU?$Enumeration@W4EVertexFormatUntyped@SpeedTree@@D@2@@Z 1000bd90 f i Culling.obj
 0001:0000adc0       ?FormatSize@SVertexDecl@SpeedTree@@SAHU?$Enumeration@W4EVertexFormatUntyped@SpeedTree@@D@2@@Z 1000bdc0 f i Culling.obj
 0001:0000adf0       ?AttributeName@SVertexDecl@SpeedTree@@SAPBDU?$Enumeration@W4EVertexAttributeUntyped@SpeedTree@@D@2@@Z 1000bdf0 f i Culling.obj
 0001:0000ae80       ?GetDescription@SVertexDecl@SpeedTree@@QBEXAAV?$CBasicString@$00@2@@Z 1000be80 f i Culling.obj
 0001:0000b120       ??_G?$CArray@D$00@SpeedTree@@UAEPAXI@Z 1000c120 f i Culling.obj
 0001:0000b170       ??_E?$CArray@D$00@SpeedTree@@UAEPAXI@Z 1000c170 f i Culling.obj
 0001:0000b200       ??_G?$CBasicString@$00@SpeedTree@@UAEPAXI@Z 1000c200 f i Culling.obj
 0001:0000b230       ??_E?$CBasicString@$00@SpeedTree@@UAEPAXI@Z 1000c230 f i Culling.obj
 0001:0000b2a0       ?MergeObjectAndInstanceVertexDecls@SVertexDecl@SpeedTree@@SA_NAAU12@ABU12@W4EInstanceType@12@@Z 1000c2a0 f i Culling.obj
 0001:0000b400       ?Set@SVertexDecl@SpeedTree@@QAE_NPBUSAttribDesc@12@@Z 1000c400 f i Culling.obj
 0001:0000b5a0       ??_H@YGXPAXIHP6EPAX0@Z@Z   1000c5a0 f i Culling.obj
 0001:0000b5d0       ??4CTimer@SpeedTree@@QAEAAV01@ABV01@@Z 1000c5d0 f i Culling.obj
 0001:0000b600       ??_FCTimer@SpeedTree@@QAEXXZ 1000c600 f i Culling.obj
 0001:0000b620       ??0CTimer@SpeedTree@@QAE@_N@Z 1000c620 f i Culling.obj
 0001:0000b6a0       ?Start@CTimer@SpeedTree@@QAEXXZ 1000c6a0 f i Culling.obj
 0001:0000b6d0       ?Stop@CTimer@SpeedTree@@QBEMXZ 1000c6d0 f i Culling.obj
 0001:0000b720       ?GetMicroSec@CTimer@SpeedTree@@QBEMXZ 1000c720 f i Culling.obj
 0001:0000b770       ?GetMilliSec@CTimer@SpeedTree@@QBEMXZ 1000c770 f i Culling.obj
 0001:0000b7c0       ?GetSec@CTimer@SpeedTree@@QBEMXZ 1000c7c0 f i Culling.obj
 0001:0000b800       ?Mark@CTimer@SpeedTree@@QAEXH@Z 1000c800 f i Culling.obj
 0001:0000b840       ?Recall@CTimer@SpeedTree@@QAEMH@Z 1000c840 f i Culling.obj
 0001:0000b870       ??_G?$CArray@PAUSNode@CScopeTrace@SpeedTree@@$00@SpeedTree@@UAEPAXI@Z 1000c870 f i Culling.obj
 0001:0000b8c0       ??_E?$CArray@PAUSNode@CScopeTrace@SpeedTree@@$00@SpeedTree@@UAEPAXI@Z 1000c8c0 f i Culling.obj
 0001:0000b950       ??4CScopeTrace@SpeedTree@@QAEAAV01@ABV01@@Z 1000c950 f i Culling.obj
 0001:0000b960       ??0CScopeTrace@SpeedTree@@QAE@PBD@Z 1000c960 f i Culling.obj
 0001:0000b970       ??1CScopeTrace@SpeedTree@@QAE@XZ 1000c970 f i Culling.obj
 0001:0000b980       ?Init@CScopeTrace@SpeedTree@@SAXXZ 1000c980 f i Culling.obj
 0001:0000b990       ?Start@CScopeTrace@SpeedTree@@SAXXZ 1000c990 f i Culling.obj
 0001:0000b9a0       ?IsActive@CScopeTrace@SpeedTree@@SA_NXZ 1000c9a0 f i Culling.obj
 0001:0000b9b0       ?Stop@CScopeTrace@SpeedTree@@SAXXZ 1000c9b0 f i Culling.obj
 0001:0000b9c0       ?Report@CScopeTrace@SpeedTree@@SAXW4EReportFormat@12@AAV?$CBasicString@$00@2@PAUSNode@12@@Z 1000c9c0 f i Culling.obj
 0001:0000b9d0       ??4SHeapReserves@SpeedTree@@QAEAAU01@ABU01@@Z 1000c9d0 f i Culling.obj
 0001:0000ba00       ??4SInstance@SpeedTree@@QAEAAU01@ABU01@@Z 1000ca00 f i Culling.obj
 0001:0000ba30       ??4STreeInstance@SpeedTree@@QAEAAU01@ABU01@@Z 1000ca30 f i Culling.obj
 0001:0000ba60       ??0?$CBlockPool@$00@SpeedTree@@QAE@ABV01@@Z 1000ca60 f i Culling.obj
 0001:0000bac0       ??_G?$CBlockPool@$00@SpeedTree@@UAEPAXI@Z 1000cac0 f i Culling.obj
 0001:0000bb00       ??_E?$CBlockPool@$00@SpeedTree@@UAEPAXI@Z 1000cb00 f i Culling.obj
 0001:0000bb80       ??_F?$CMap@PBVCCore@SpeedTree@@V?$CArray@USInstance@SpeedTree@@$00@2@V?$CLess@PBVCCore@SpeedTree@@@2@$00@SpeedTree@@QAEXXZ 1000cb80 f i Culling.obj
 0001:0000bba0       ??_G?$CMap@PBVCCore@SpeedTree@@V?$CArray@USInstance@SpeedTree@@$00@2@V?$CLess@PBVCCore@SpeedTree@@@2@$00@SpeedTree@@UAEPAXI@Z 1000cba0 f i Culling.obj
 0001:0000bc30       ??_E?$CMap@PBVCCore@SpeedTree@@V?$CArray@USInstance@SpeedTree@@$00@2@V?$CLess@PBVCCore@SpeedTree@@@2@$00@SpeedTree@@UAEPAXI@Z 1000cc30 f i Culling.obj
 0001:0000bd00       ??_G?$CArray@PBUSTreeInstance@SpeedTree@@$00@SpeedTree@@UAEPAXI@Z 1000cd00 f i Culling.obj
 0001:0000bd50       ??_E?$CArray@PBUSTreeInstance@SpeedTree@@$00@SpeedTree@@UAEPAXI@Z 1000cd50 f i Culling.obj
 0001:0000bde0       ??_G?$CArray@USInstance@SpeedTree@@$00@SpeedTree@@UAEPAXI@Z 1000cde0 f i Culling.obj
 0001:0000be30       ??_E?$CArray@USInstance@SpeedTree@@$00@SpeedTree@@UAEPAXI@Z 1000ce30 f i Culling.obj
 0001:0000bec0       ??4S3dTreeInstanceLod@SpeedTree@@QAEAAU01@ABU01@@Z 1000cec0 f i Culling.obj
 0001:0000bf00       ??_G?$CArray@US3dTreeInstanceLod@SpeedTree@@$00@SpeedTree@@UAEPAXI@Z 1000cf00 f i Culling.obj
 0001:0000bf50       ??_E?$CArray@US3dTreeInstanceLod@SpeedTree@@$00@SpeedTree@@UAEPAXI@Z 1000cf50 f i Culling.obj
 0001:0000bfe0       ??_G?$CArray@PAUSInstance@SpeedTree@@$00@SpeedTree@@UAEPAXI@Z 1000cfe0 f i Culling.obj
 0001:0000c030       ??_E?$CArray@PAUSInstance@SpeedTree@@$00@SpeedTree@@UAEPAXI@Z 1000d030 f i Culling.obj
 0001:0000c0c0       ??1SDetailedCullData@SpeedTree@@QAE@XZ 1000d0c0 f i Culling.obj
 0001:0000c170       ??0SDetailedCullData@SpeedTree@@QAE@ABU01@@Z 1000d170 f i Culling.obj
 0001:0000c2a0       ??4SDetailedCullData@SpeedTree@@QAEAAU01@ABU01@@Z 1000d2a0 f i Culling.obj
 0001:0000c310       ??_G?$CArray@VCCell@SpeedTree@@$00@SpeedTree@@UAEPAXI@Z 1000d310 f i Culling.obj
 0001:0000c360       ??_E?$CArray@VCCell@SpeedTree@@$00@SpeedTree@@UAEPAXI@Z 1000d360 f i Culling.obj
 0001:0000c3f0       ??1CView@SpeedTree@@QAE@XZ 1000d3f0 f i Culling.obj
 0001:0000c400       ??4CView@SpeedTree@@QAEAAV01@ABV01@@Z 1000d400 f i Culling.obj
 0001:0000c6a0       ??_G?$CArray@PAUSHeapBlock@?$CCellHeapMgr@VCCell@SpeedTree@@@SpeedTree@@$00@SpeedTree@@UAEPAXI@Z 1000d6a0 f i Culling.obj
 0001:0000c6f0       ??_E?$CArray@PAUSHeapBlock@?$CCellHeapMgr@VCCell@SpeedTree@@@SpeedTree@@$00@SpeedTree@@UAEPAXI@Z 1000d6f0 f i Culling.obj
 0001:0000c780       ??_G?$CArray@PAVCCell@SpeedTree@@$00@SpeedTree@@UAEPAXI@Z 1000d780 f i Culling.obj
 0001:0000c7d0       ??_E?$CArray@PAVCCell@SpeedTree@@$00@SpeedTree@@UAEPAXI@Z 1000d7d0 f i Culling.obj
 0001:0000c860       ??0?$CCellHeapMgr@VCCell@SpeedTree@@@SpeedTree@@QAE@ABV01@@Z 1000d860 f i Culling.obj
 0001:0000c990       ??4?$CCellHeapMgr@VCCell@SpeedTree@@@SpeedTree@@QAEAAV01@ABV01@@Z 1000d990 f i Culling.obj
 0001:0000ca00       ??_F?$CMap@USRowCol@SpeedTree@@PAVCCell@2@V?$CLess@USRowCol@SpeedTree@@@2@$00@SpeedTree@@QAEXXZ 1000da00 f i Culling.obj
 0001:0000ca20       ??_G?$CMap@USRowCol@SpeedTree@@PAVCCell@2@V?$CLess@USRowCol@SpeedTree@@@2@$00@SpeedTree@@UAEPAXI@Z 1000da20 f i Culling.obj
 0001:0000cab0       ??_E?$CMap@USRowCol@SpeedTree@@PAVCCell@2@V?$CLess@USRowCol@SpeedTree@@@2@$00@SpeedTree@@UAEPAXI@Z 1000dab0 f i Culling.obj
 0001:0000cb80       ??_G?$CArray@USDetailedCullData@SpeedTree@@$00@SpeedTree@@UAEPAXI@Z 1000db80 f i Culling.obj
 0001:0000cbf0       ??_E?$CArray@USDetailedCullData@SpeedTree@@$00@SpeedTree@@UAEPAXI@Z 1000dbf0 f i Culling.obj
 0001:0000cca0       ??0CVisibleInstances@SpeedTree@@QAE@ABV01@@Z 1000dca0 f i Culling.obj
 0001:0000ce90       ??4CVisibleInstances@SpeedTree@@QAEAAV01@ABV01@@Z 1000de90 f i Culling.obj
 0001:0000cfe0       ??_FCVisibleInstances@SpeedTree@@QAEXXZ 1000dfe0 f i Culling.obj
 0001:0000d000       ??_GCVisibleInstances@SpeedTree@@UAEPAXI@Z 1000e000 f i Culling.obj
 0001:0000d030       ??_ECVisibleInstances@SpeedTree@@UAEPAXI@Z 1000e030 f i Culling.obj
 0001:0000d0a0       ??0CForest@SpeedTree@@QAE@ABV01@@Z 1000e0a0 f i Culling.obj
 0001:0000d170       ??4CForest@SpeedTree@@QAEAAV01@ABV01@@Z 1000e170 f i Culling.obj
 0001:0000d240       ??_GCForest@SpeedTree@@UAEPAXI@Z 1000e240 f i Culling.obj
 0001:0000d270       ??_ECForest@SpeedTree@@UAEPAXI@Z 1000e270 f i Culling.obj
 0001:0000d2e0       ??0SHeapReserves@SpeedTree@@QAE@XZ 1000e2e0 f i Culling.obj
 0001:0000d340       ??0CView@SpeedTree@@QAE@XZ 1000e340 f i Culling.obj
 0001:0000d670       ?SetLodRefPoint@CView@SpeedTree@@QAEXABVVec3@2@@Z 1000e670 f i Culling.obj
 0001:0000d6a0       ?GetCameraPos@CView@SpeedTree@@QBEABVVec3@2@XZ 1000e6a0 f i Culling.obj
 0001:0000d6b0       ?GetLodRefPoint@CView@SpeedTree@@QBEABVVec3@2@XZ 1000e6b0 f i Culling.obj
 0001:0000d6d0       ?GetProjection@CView@SpeedTree@@QBEABVMat4x4@2@XZ 1000e6d0 f i Culling.obj
 0001:0000d6f0       ?GetModelview@CView@SpeedTree@@QBEABVMat4x4@2@XZ 1000e6f0 f i Culling.obj
 0001:0000d710       ?GetModelviewNoTranslate@CView@SpeedTree@@QBEABVMat4x4@2@XZ 1000e710 f i Culling.obj
 0001:0000d730       ?GetNearClip@CView@SpeedTree@@QBEMXZ 1000e730 f i Culling.obj
 0001:0000d750       ?GetFarClip@CView@SpeedTree@@QBEMXZ 1000e750 f i Culling.obj
 0001:0000d770       ?GetCameraDir@CView@SpeedTree@@QBEABVVec3@2@XZ 1000e770 f i Culling.obj
 0001:0000d790       ?GetComposite@CView@SpeedTree@@QBEABVMat4x4@2@XZ 1000e790 f i Culling.obj
 0001:0000d7b0       ?GetCompositeNoTranslate@CView@SpeedTree@@QBEABVMat4x4@2@XZ 1000e7b0 f i Culling.obj
 0001:0000d7d0       ?GetProjectionInverse@CView@SpeedTree@@QBEABVMat4x4@2@XZ 1000e7d0 f i Culling.obj
 0001:0000d7f0       ?GetCameraAzimuth@CView@SpeedTree@@QBEMXZ 1000e7f0 f i Culling.obj
 0001:0000d810       ?GetCameraPitch@CView@SpeedTree@@QBEMXZ 1000e810 f i Culling.obj
 0001:0000d830       ?GetFrustumPoints@CView@SpeedTree@@QBEPBVVec3@2@XZ 1000e830 f i Culling.obj
 0001:0000d850       ?GetFrustumPlanes@CView@SpeedTree@@QBEPBVVec4@2@XZ 1000e850 f i Culling.obj
 0001:0000d870       ?GetFrustumExtents@CView@SpeedTree@@QBEABVCExtents@2@XZ 1000e870 f i Culling.obj
 0001:0000d890       ?GetCameraFacingMatrix@CView@SpeedTree@@QBEABVMat4x4@2@XZ 1000e890 f i Culling.obj
 0001:0000d8b0       ?SetHorzBillboardFadeAngles@CView@SpeedTree@@QAEXMM@Z 1000e8b0 f i Culling.obj
 0001:0000d8e0       ?GetHorzBillboardFadeAngles@CView@SpeedTree@@QBEXAAM0@Z 1000e8e0 f i Culling.obj
 0001:0000d910       ?GetHorzBillboardFadeValue@CView@SpeedTree@@QBEMXZ 1000e910 f i Culling.obj
 0001:0000d930       ?WindEnable@CForest@SpeedTree@@QAEX_N@Z 1000e930 f i Culling.obj
 0001:0000d950       ?WindIsEnabled@CForest@SpeedTree@@QBE_NXZ 1000e950 f i Culling.obj
 0001:0000d970       ?WindEnableGusting@CForest@SpeedTree@@QAEXABV?$CArray@PAVCCore@SpeedTree@@$00@2@_N@Z 1000e970 f i Culling.obj
 0001:0000d9d0       ??_G?$CArray@PAVCCore@SpeedTree@@$00@SpeedTree@@UAEPAXI@Z 1000e9d0 f i Culling.obj
 0001:0000da20       ??_E?$CArray@PAVCCore@SpeedTree@@$00@SpeedTree@@UAEPAXI@Z 1000ea20 f i Culling.obj
 0001:0000dab0       ?WindIsGustingEnabled@CForest@SpeedTree@@QBE_NXZ 1000eab0 f i Culling.obj
 0001:0000dad0       ?WindAdvance@CForest@SpeedTree@@UAEXABV?$CArray@PAVCCore@SpeedTree@@$00@2@M@Z 1000ead0 f i Culling.obj
 0001:0000db40       ?WindPreroll@CForest@SpeedTree@@QAEXABV?$CArray@PAVCCore@SpeedTree@@$00@2@M@Z 1000eb40 f i Culling.obj
 0001:0000dbf0       ?WindSetStrength@CForest@SpeedTree@@QAEXABV?$CArray@PAVCCore@SpeedTree@@$00@2@M@Z 1000ebf0 f i Culling.obj
 0001:0000dc50       ?WindSetInitDirection@CForest@SpeedTree@@QAEXABV?$CArray@PAVCCore@SpeedTree@@$00@2@ABVVec3@2@@Z 1000ec50 f i Culling.obj
 0001:0000dcb0       ?WindSetDirection@CForest@SpeedTree@@QAEXABV?$CArray@PAVCCore@SpeedTree@@$00@2@ABVVec3@2@@Z 1000ecb0 f i Culling.obj
 0001:0000dd20       ?WindGetGlobalTime@CForest@SpeedTree@@QBEMXZ 1000ed20 f i Culling.obj
 0001:0000dd40       ?FrameEnd@CForest@SpeedTree@@QAEXXZ 1000ed40 f i Culling.obj
 0001:0000dd70       ?GetFrameIndex@CForest@SpeedTree@@QBEHXZ 1000ed70 f i Culling.obj
 0001:0000dd90       ?SetLightDir@CForest@SpeedTree@@QAEXABVVec3@2@@Z 1000ed90 f i Culling.obj
 0001:0000de20       ?GetLightDir@CForest@SpeedTree@@QBEABVVec3@2@XZ 1000ee20 f i Culling.obj
 0001:0000de40       ?LightDirChanged@CForest@SpeedTree@@QBE_NXZ 1000ee40 f i Culling.obj
 0001:0000de60       ?SetCascadedShadowMapDistances@CForest@SpeedTree@@QAEXQBMM@Z 1000ee60 f i Culling.obj
 0001:0000deb0       ?GetCascadedShadowMapDistances@CForest@SpeedTree@@QBEPBMXZ 1000eeb0 f i Culling.obj
 0001:0000ded0       ?SetShadowFadePercentage@CForest@SpeedTree@@QAEXM@Z 1000eed0 f i Culling.obj
 0001:0000def0       ?GetShadowFadePercentage@CForest@SpeedTree@@QBEMXZ 1000eef0 f i Culling.obj
 0001:0000df10       ??4?$CHeapAllocCheck@V?$CArray@PBUSTreeInstance@SpeedTree@@$00@SpeedTree@@@SpeedTree@@QAEAAV01@ABV01@@Z 1000ef10 f i Culling.obj
 0001:0000df20       ??4?$CHeapAllocCheck@V?$CArray@USInstance@SpeedTree@@$00@SpeedTree@@@SpeedTree@@QAEAAV01@ABV01@@Z 1000ef20 f i Culling.obj
 0001:0000df30       ??0SDetailedCullData@SpeedTree@@QAE@XZ 1000ef30 f i Culling.obj
 0001:0000dff0       ??0CVisibleInstances@SpeedTree@@QAE@W4EPopulationType@1@_N@Z 1000eff0 f i Culling.obj
 0001:0000e1e0       ??1CVisibleInstances@SpeedTree@@UAE@XZ 1000f1e0 f i Culling.obj
 0001:0000e320       ?SetHeapReserves@CVisibleInstances@SpeedTree@@UAEXABUSHeapReserves@2@@Z 1000f320 f i Culling.obj
 0001:0000e440       ?SetCellSize@CVisibleInstances@SpeedTree@@QAEXM@Z 1000f440 f i Culling.obj
 0001:0000e460       ?Clear@CVisibleInstances@SpeedTree@@QAEXXZ 1000f460 f i Culling.obj
 0001:0000e480       ?RoughCells@CVisibleInstances@SpeedTree@@QAEAAV?$CArray@VCCell@SpeedTree@@$00@2@XZ 1000f480 f i Culling.obj
 0001:0000e4a0       ?VisibleCells@CVisibleInstances@SpeedTree@@QBEABV?$CMap@USRowCol@SpeedTree@@PAVCCell@2@V?$CLess@USRowCol@SpeedTree@@@2@$00@2@XZ 1000f4a0 f i Culling.obj
 0001:0000e4c0       ?NewlyVisibleCells@CVisibleInstances@SpeedTree@@QAEAAV?$CArray@PAVCCell@SpeedTree@@$00@2@XZ 1000f4c0 f i Culling.obj
 0001:0000e4e0       ?GetExtentsAsRowCols@CVisibleInstances@SpeedTree@@QBEXAAH000@Z 1000f4e0 f i Culling.obj
 0001:0000e530       ?NotifyOfPopulationChange@CVisibleInstances@SpeedTree@@UAEXXZ 1000f530 f i Culling.obj
 0001:0000e6a0       ??4iterator_base@?$CMap@USRowCol@SpeedTree@@PAVCCell@2@V?$CLess@USRowCol@SpeedTree@@@2@$00@SpeedTree@@QAEAAV012@ABV012@@Z 1000f6a0 f i Culling.obj
 0001:0000e6c0       ??_Fiterator_base@?$CMap@USRowCol@SpeedTree@@PAVCCell@2@V?$CLess@USRowCol@SpeedTree@@@2@$00@SpeedTree@@QAEXXZ 1000f6c0 f i Culling.obj
 0001:0000e6e0       ??4const_iterator@?$CMap@USRowCol@SpeedTree@@PAVCCell@2@V?$CLess@USRowCol@SpeedTree@@@2@$00@SpeedTree@@QAEAAV012@ABV012@@Z 1000f6e0 f i Culling.obj
 0001:0000e700       ??_Fconst_iterator@?$CMap@USRowCol@SpeedTree@@PAVCCell@2@V?$CLess@USRowCol@SpeedTree@@@2@$00@SpeedTree@@QAEXXZ 1000f700 f i Culling.obj
 0001:0000e720       ??4iterator@?$CMap@USRowCol@SpeedTree@@PAVCCell@2@V?$CLess@USRowCol@SpeedTree@@@2@$00@SpeedTree@@QAEAAV012@ABV012@@Z 1000f720 f i Culling.obj
 0001:0000e740       ??_Fiterator@?$CMap@USRowCol@SpeedTree@@PAVCCell@2@V?$CLess@USRowCol@SpeedTree@@@2@$00@SpeedTree@@QAEXXZ 1000f740 f i Culling.obj
 0001:0000e760       ?Get3dInstanceLods@CVisibleInstances@SpeedTree@@QBEABV?$CArray@USDetailedCullData@SpeedTree@@$00@2@XZ 1000f760 f i Culling.obj
 0001:0000e780       ?GetInstaceLodArrayByBase@CVisibleInstances@SpeedTree@@IAEPAUSDetailedCullData@2@PBVCCore@2@@Z 1000f780 f i Culling.obj
 0001:0000e890       ??4?$CHeapAllocCheck@V?$CArray@USDetailedCullData@SpeedTree@@$00@SpeedTree@@@SpeedTree@@QAEAAV01@ABV01@@Z 1000f890 f i Culling.obj
 0001:0000e8a0       ??0SInstance@SpeedTree@@QAE@XZ 1000f8a0 f i Culling.obj
 0001:0000e920       ??0STreeInstance@SpeedTree@@QAE@XZ 1000f920 f i Culling.obj
 0001:0000e980       ?ComputeCullParameters@STreeInstance@SpeedTree@@QAEXXZ 1000f980 f i Culling.obj
 0001:0000eae0       ??_G?$CBasicFixedString@$0IAA@@SpeedTree@@UAEPAXI@Z 1000fae0 f i Culling.obj
 0001:0000eb10       ??_E?$CBasicFixedString@$0IAA@@SpeedTree@@UAEPAXI@Z 1000fb10 f i Culling.obj
 0001:0000eb80       ??_G?$CArray@V?$CBasicFixedString@$0BAA@@SpeedTree@@$00@SpeedTree@@UAEPAXI@Z 1000fb80 f i Culling.obj
 0001:0000ebd0       ??_E?$CArray@V?$CBasicFixedString@$0BAA@@SpeedTree@@$00@SpeedTree@@UAEPAXI@Z 1000fbd0 f i Culling.obj
 0001:0000ec60       ?ComputeFrustumExtents@@YAXAAVCExtents@SpeedTree@@ABVCView@2@M@Z 1000fc60 f   Culling.obj
 0001:0000ed30       ?RoughCullCells@CVisibleInstances@SpeedTree@@QAE_NABVCView@2@HM@Z 1000fd30 f   Culling.obj
 0001:0000ef90       ?ComputeCellCoords@SpeedTree@@YAXABVVec3@1@MAAH1@Z 1000ff90 f i Culling.obj
 0001:0000f020       ?CellInFrustum@@YA?AW4ECullStatus@SpeedTree@@PBVVec4@2@ABVVec3@2@M@Z 10010020 f   Culling.obj
 0001:0000f050       ?FrustumCullsObject_DetailedSphere@SpeedTree@@YA?AW4ECullStatus@1@QBVVec4@1@ABVVec3@1@M@Z 10010050 f i Culling.obj
 0001:0000f100       ?FineCullTreeCells@CVisibleInstances@SpeedTree@@QAE_NABVCView@2@H@Z 10010100 f   Culling.obj
 0001:0000f4c0       ?FindCellByRowCol@@YAPAVCCell@SpeedTree@@AAV?$CMap@USRowCol@SpeedTree@@PAVCCell@2@V?$CLess@USRowCol@SpeedTree@@@2@$00@2@ABUSRowCol@2@@Z 100104c0 f i Culling.obj
 0001:0000f560       ??4?$CHeapAllocCheck@V?$CArray@PAVCCell@SpeedTree@@$00@SpeedTree@@@SpeedTree@@QAEAAV01@ABV01@@Z 10010560 f i Culling.obj
 0001:0000f570       ?FineCullGrassCells@CVisibleInstances@SpeedTree@@QAE_NABVCView@2@HM@Z 10010570 f   Culling.obj
 0001:0000fa90       ?Cull3dTreesAndComputeLod@CVisibleInstances@SpeedTree@@UAEXABVCView@2@@Z 10010a90 f   Culling.obj
 0001:00010080       ?FrustumCullsObject_SimpleSphere@SpeedTree@@YA_NQBVVec4@1@ABVVec3@1@M@Z 10011080 f i Culling.obj
 0001:00010110       ??4?$CHeapAllocCheck@V?$CArray@US3dTreeInstanceLod@SpeedTree@@$00@SpeedTree@@@SpeedTree@@QAEAAV01@ABV01@@Z 10011110 f i Culling.obj
 0001:00010120       ??4iterator_base@?$CMap@PBVCCore@SpeedTree@@V?$CArray@USInstance@SpeedTree@@$00@2@V?$CLess@PBVCCore@SpeedTree@@@2@$00@SpeedTree@@QAEAAV012@ABV012@@Z 10011120 f i Culling.obj
 0001:00010140       ??_Fiterator_base@?$CMap@PBVCCore@SpeedTree@@V?$CArray@USInstance@SpeedTree@@$00@2@V?$CLess@PBVCCore@SpeedTree@@@2@$00@SpeedTree@@QAEXXZ 10011140 f i Culling.obj
 0001:00010160       ??4const_iterator@?$CMap@PBVCCore@SpeedTree@@V?$CArray@USInstance@SpeedTree@@$00@2@V?$CLess@PBVCCore@SpeedTree@@@2@$00@SpeedTree@@QAEAAV012@ABV012@@Z 10011160 f i Culling.obj
 0001:00010180       ??_Fconst_iterator@?$CMap@PBVCCore@SpeedTree@@V?$CArray@USInstance@SpeedTree@@$00@2@V?$CLess@PBVCCore@SpeedTree@@@2@$00@SpeedTree@@QAEXXZ 10011180 f i Culling.obj
 0001:000101a0       ??4iterator@?$CMap@PBVCCore@SpeedTree@@V?$CArray@USInstance@SpeedTree@@$00@2@V?$CLess@PBVCCore@SpeedTree@@@2@$00@SpeedTree@@QAEAAV012@ABV012@@Z 100111a0 f i Culling.obj
 0001:000101c0       ??_Fiterator@?$CMap@PBVCCore@SpeedTree@@V?$CArray@USInstance@SpeedTree@@$00@2@V?$CLess@PBVCCore@SpeedTree@@@2@$00@SpeedTree@@QAEXXZ 100111c0 f i Culling.obj
 0001:000101e0       ??0?$CPaddedPtr@$$CBD@SpeedTree@@QAE@PBD@Z 100111e0 f i Culling.obj
 0001:00010210       ??1?$CPaddedPtr@$$CBD@SpeedTree@@QAE@XZ 10011210 f i Culling.obj
 0001:00010220       ??B?$CPaddedPtr@$$CBD@SpeedTree@@QBEPBDXZ 10011220 f i Culling.obj
 0001:00010230       ??4?$CPaddedPtr@$$CBD@SpeedTree@@QAEPBDPBD@Z 10011230 f i Culling.obj
 0001:00010250       ??0?$CPaddedPtr@USRenderState@SpeedTree@@@SpeedTree@@QAE@PAUSRenderState@1@@Z 10011250 f i Culling.obj
 0001:00010280       ??1?$CPaddedPtr@USRenderState@SpeedTree@@@SpeedTree@@QAE@XZ 10011280 f i Culling.obj
 0001:00010290       ??C?$CPaddedPtr@USRenderState@SpeedTree@@@SpeedTree@@QAEPAUSRenderState@1@XZ 10011290 f i Culling.obj
 0001:000102a0       ??C?$CPaddedPtr@USRenderState@SpeedTree@@@SpeedTree@@QBEPBUSRenderState@1@XZ 100112a0 f i Culling.obj
 0001:000102b0       ??0?$CPaddedPtr@E@SpeedTree@@QAE@PAE@Z 100112b0 f i Culling.obj
 0001:000102e0       ??1?$CPaddedPtr@E@SpeedTree@@QAE@XZ 100112e0 f i Culling.obj
 0001:000102f0       ??B?$CPaddedPtr@E@SpeedTree@@QAEPAEXZ 100112f0 f i Culling.obj
 0001:00010300       ??B?$CPaddedPtr@E@SpeedTree@@QBEPBEXZ 10011300 f i Culling.obj
 0001:00010310       ??0?$CPaddedPtr@USDrawCall@SpeedTree@@@SpeedTree@@QAE@PAUSDrawCall@1@@Z 10011310 f i Culling.obj
 0001:00010340       ??1?$CPaddedPtr@USDrawCall@SpeedTree@@@SpeedTree@@QAE@XZ 10011340 f i Culling.obj
 0001:00010350       ??0?$CPaddedPtr@USBone@SpeedTree@@@SpeedTree@@QAE@PAUSBone@1@@Z 10011350 f i Culling.obj
 0001:00010380       ??1?$CPaddedPtr@USBone@SpeedTree@@@SpeedTree@@QAE@XZ 10011380 f i Culling.obj
 0001:00010390       ??0?$CPaddedPtr@USLod@SpeedTree@@@SpeedTree@@QAE@PAUSLod@1@@Z 10011390 f i Culling.obj
 0001:000103c0       ??1?$CPaddedPtr@USLod@SpeedTree@@@SpeedTree@@QAE@XZ 100113c0 f i Culling.obj
 0001:000103d0       ??0?$CHeapAllocCheck@V?$CArray@PBUSTreeInstance@SpeedTree@@$00@SpeedTree@@@SpeedTree@@QAE@ABV?$CArray@PBUSTreeInstance@SpeedTree@@$00@1@W4ESdkLimit@1@PBDH@Z 100113d0 f i Culling.obj
 0001:000103e0       ??0?$CHeapAllocCheck@V?$CArray@USInstance@SpeedTree@@$00@SpeedTree@@@SpeedTree@@QAE@ABV?$CArray@USInstance@SpeedTree@@$00@1@W4ESdkLimit@1@PBDH@Z 100113e0 f i Culling.obj
 0001:000103f0       ??0?$CHeapAllocCheck@V?$CArray@USDetailedCullData@SpeedTree@@$00@SpeedTree@@@SpeedTree@@QAE@ABV?$CArray@USDetailedCullData@SpeedTree@@$00@1@W4ESdkLimit@1@PBDH@Z 100113f0 f i Culling.obj
 0001:00010400       ??0?$CHeapAllocCheck@V?$CArray@PAVCCell@SpeedTree@@$00@SpeedTree@@@SpeedTree@@QAE@ABV?$CArray@PAVCCell@SpeedTree@@$00@1@W4ESdkLimit@1@PBDH@Z 10011400 f i Culling.obj
 0001:00010410       ??0?$CHeapAllocCheck@V?$CArray@US3dTreeInstanceLod@SpeedTree@@$00@SpeedTree@@@SpeedTree@@QAE@ABV?$CArray@US3dTreeInstanceLod@SpeedTree@@$00@1@W4ESdkLimit@1@PBDH@Z 10011410 f i Culling.obj
 0001:00010420       ??0?$Enumeration@W4EVertexFormatUntyped@SpeedTree@@D@SpeedTree@@QAE@W4EVertexFormatUntyped@1@@Z 10011420 f i Culling.obj
 0001:00010440       ??0?$Enumeration@W4EVertexFormatUntyped@SpeedTree@@D@SpeedTree@@QAE@XZ 10011440 f i Culling.obj
 0001:00010460       ??B?$Enumeration@W4EVertexFormatUntyped@SpeedTree@@D@SpeedTree@@QBE?AW4EVertexFormatUntyped@1@XZ 10011460 f i Culling.obj
 0001:00010480       ??0?$Enumeration@W4EVertexPropertyUntyped@SpeedTree@@D@SpeedTree@@QAE@W4EVertexPropertyUntyped@1@@Z 10011480 f i Culling.obj
 0001:000104a0       ??0?$Enumeration@W4EVertexPropertyUntyped@SpeedTree@@D@SpeedTree@@QAE@XZ 100114a0 f i Culling.obj
 0001:000104c0       ??B?$Enumeration@W4EVertexPropertyUntyped@SpeedTree@@D@SpeedTree@@QBE?AW4EVertexPropertyUntyped@1@XZ 100114c0 f i Culling.obj
 0001:000104e0       ??0?$Enumeration@W4EVertexComponentUntyped@SpeedTree@@D@SpeedTree@@QAE@H@Z 100114e0 f i Culling.obj
 0001:00010500       ??0?$Enumeration@W4EVertexComponentUntyped@SpeedTree@@D@SpeedTree@@QAE@W4EVertexComponentUntyped@1@@Z 10011500 f i Culling.obj
 0001:00010520       ??0?$Enumeration@W4EVertexComponentUntyped@SpeedTree@@D@SpeedTree@@QAE@XZ 10011520 f i Culling.obj
 0001:00010540       ??B?$Enumeration@W4EVertexComponentUntyped@SpeedTree@@D@SpeedTree@@QBE?AW4EVertexComponentUntyped@1@XZ 10011540 f i Culling.obj
 0001:00010560       ??0?$Enumeration@W4EVertexAttributeUntyped@SpeedTree@@D@SpeedTree@@QAE@H@Z 10011560 f i Culling.obj
 0001:00010580       ??0?$Enumeration@W4EVertexAttributeUntyped@SpeedTree@@D@SpeedTree@@QAE@W4EVertexAttributeUntyped@1@@Z 10011580 f i Culling.obj
 0001:000105a0       ??0?$Enumeration@W4EVertexAttributeUntyped@SpeedTree@@D@SpeedTree@@QAE@XZ 100115a0 f i Culling.obj
 0001:000105c0       ??B?$Enumeration@W4EVertexAttributeUntyped@SpeedTree@@D@SpeedTree@@QBE?AW4EVertexAttributeUntyped@1@XZ 100115c0 f i Culling.obj
 0001:000105e0       ??0?$CBasicFixedString@$0BAA@@SpeedTree@@QAE@PBD@Z 100115e0 f i Culling.obj
 0001:00010610       ??0?$CBasicFixedString@$0BAA@@SpeedTree@@QAE@ABV01@@Z 10011610 f i Culling.obj
 0001:00010640       ??0?$CBasicFixedString@$0BAA@@SpeedTree@@QAE@XZ 10011640 f i Culling.obj
 0001:00010670       ??1?$CBasicFixedString@$0BAA@@SpeedTree@@UAE@XZ 10011670 f i Culling.obj
 0001:00010690       ?empty@?$CBasicFixedString@$0BAA@@SpeedTree@@QBE_NXZ 10011690 f i Culling.obj
 0001:000106b0       ?c_str@?$CBasicFixedString@$0BAA@@SpeedTree@@QBEPBDXZ 100116b0 f i Culling.obj
 0001:000106d0       ?find@?$CBasicFixedString@$0BAA@@SpeedTree@@QBEIDI@Z 100116d0 f i Culling.obj
 0001:00010730       ??Y?$CBasicFixedString@$0BAA@@SpeedTree@@QAEXABV01@@Z 10011730 f i Culling.obj
 0001:00010790       ??Y?$CBasicFixedString@$0BAA@@SpeedTree@@QAEXPBD@Z 10011790 f i Culling.obj
 0001:00010800       ??H?$CBasicFixedString@$0BAA@@SpeedTree@@QBE?AV01@ABV01@@Z 10011800 f i Culling.obj
 0001:000108d0       ??H?$CBasicFixedString@$0BAA@@SpeedTree@@QBE?AV01@PBD@Z 100118d0 f i Culling.obj
 0001:000109a0       ??4?$CBasicFixedString@$0BAA@@SpeedTree@@QAEAAV01@PBD@Z 100119a0 f i Culling.obj
 0001:00010a10       ??4?$CBasicFixedString@$0BAA@@SpeedTree@@QAEAAV01@ABV01@@Z 10011a10 f i Culling.obj
 0001:00010a70       ??A?$CBasicFixedString@$0BAA@@SpeedTree@@QBEABDI@Z 10011a70 f i Culling.obj
 0001:00010a90       ?Format@?$CBasicFixedString@$0BAA@@SpeedTree@@SA?AV12@PBDZZ 10011a90 f i Culling.obj
 0001:00010b90       ?Extension@?$CBasicFixedString@$0BAA@@SpeedTree@@QBE?AV12@D@Z 10011b90 f i Culling.obj
 0001:00010d30       ??1?$CArray@D$00@SpeedTree@@UAE@XZ 10011d30 f i Culling.obj
 0001:00010d70       ??1?$CBasicString@$00@SpeedTree@@UAE@XZ 10011d70 f i Culling.obj
 0001:00010df0       ??Y?$CBasicString@$00@SpeedTree@@QAEXABV01@@Z 10011df0 f i Culling.obj
 0001:00010e70       ?Format@?$CBasicString@$00@SpeedTree@@SA?AV12@PBDZZ 10011e70 f i Culling.obj
 0001:00010f00       ??0?$CArray@PAUSNode@CScopeTrace@SpeedTree@@$00@SpeedTree@@QAE@XZ 10011f00 f i Culling.obj
 0001:00010f50       ??1?$CArray@PAUSNode@CScopeTrace@SpeedTree@@$00@SpeedTree@@UAE@XZ 10011f50 f i Culling.obj
 0001:00010f90       ?size@?$CArray@PAUSNode@CScopeTrace@SpeedTree@@$00@SpeedTree@@QBEIXZ 10011f90 f i Culling.obj
 0001:00010fb0       ??A?$CArray@PAUSNode@CScopeTrace@SpeedTree@@$00@SpeedTree@@QAEAAPAUSNode@CScopeTrace@1@I@Z 10011fb0 f i Culling.obj
 0001:00010fd0       ??1?$CBlockPool@$00@SpeedTree@@UAE@XZ 10011fd0 f i Culling.obj
 0001:00011000       ??0?$CMap@PBVCCore@SpeedTree@@V?$CArray@USInstance@SpeedTree@@$00@2@V?$CLess@PBVCCore@SpeedTree@@@2@$00@SpeedTree@@QAE@I@Z 10012000 f i Culling.obj
 0001:00011080       ??1?$CMap@PBVCCore@SpeedTree@@V?$CArray@USInstance@SpeedTree@@$00@2@V?$CLess@PBVCCore@SpeedTree@@@2@$00@SpeedTree@@UAE@XZ 10012080 f i Culling.obj
 0001:00011100       ?clear@?$CMap@PBVCCore@SpeedTree@@V?$CArray@USInstance@SpeedTree@@$00@2@V?$CLess@PBVCCore@SpeedTree@@@2@$00@SpeedTree@@QAEXXZ 10012100 f i Culling.obj
 0001:00011170       ??A?$CMap@PBVCCore@SpeedTree@@V?$CArray@USInstance@SpeedTree@@$00@2@V?$CLess@PBVCCore@SpeedTree@@@2@$00@SpeedTree@@QAEAAV?$CArray@USInstance@SpeedTree@@$00@1@ABQBVCCore@1@@Z 10012170 f i Culling.obj
 0001:000113d0       ?end@?$CMap@PBVCCore@SpeedTree@@V?$CArray@USInstance@SpeedTree@@$00@2@V?$CLess@PBVCCore@SpeedTree@@@2@$00@SpeedTree@@QAE?AViterator@12@XZ 100123d0 f i Culling.obj
 0001:00011400       ?find@?$CMap@PBVCCore@SpeedTree@@V?$CArray@USInstance@SpeedTree@@$00@2@V?$CLess@PBVCCore@SpeedTree@@@2@$00@SpeedTree@@QBE?AViterator@12@ABQBVCCore@2@@Z 10012400 f i Culling.obj
 0001:00011500       ??0?$CArray@PBUSTreeInstance@SpeedTree@@$00@SpeedTree@@QAE@XZ 10012500 f i Culling.obj
 0001:00011550       ??1?$CArray@PBUSTreeInstance@SpeedTree@@$00@SpeedTree@@UAE@XZ 10012550 f i Culling.obj
 0001:00011590       ?size@?$CArray@PBUSTreeInstance@SpeedTree@@$00@SpeedTree@@QBEIXZ 10012590 f i Culling.obj
 0001:000115b0       ?resize@?$CArray@PBUSTreeInstance@SpeedTree@@$00@SpeedTree@@QAE_NI@Z 100125b0 f i Culling.obj
 0001:000115f0       ??A?$CArray@PBUSTreeInstance@SpeedTree@@$00@SpeedTree@@QBEABQBUSTreeInstance@1@I@Z 100125f0 f i Culling.obj
 0001:00011610       ??A?$CArray@PBUSTreeInstance@SpeedTree@@$00@SpeedTree@@QAEAAPBUSTreeInstance@1@I@Z 10012610 f i Culling.obj
 0001:00011630       ?SetHeapDescription@?$CArray@PBUSTreeInstance@SpeedTree@@$00@SpeedTree@@QAEXPBD@Z 10012630 f i Culling.obj
 0001:00011650       ??0?$CArray@USInstance@SpeedTree@@$00@SpeedTree@@QAE@XZ 10012650 f i Culling.obj
 0001:000116a0       ??1?$CArray@USInstance@SpeedTree@@$00@SpeedTree@@UAE@XZ 100126a0 f i Culling.obj
 0001:000116e0       ?clear@?$CArray@USInstance@SpeedTree@@$00@SpeedTree@@QAEXXZ 100126e0 f i Culling.obj
 0001:00011770       ?size@?$CArray@USInstance@SpeedTree@@$00@SpeedTree@@QBEIXZ 10012770 f i Culling.obj
 0001:00011790       ?resize@?$CArray@USInstance@SpeedTree@@$00@SpeedTree@@QAE_NI@Z 10012790 f i Culling.obj
 0001:000117d0       ??A?$CArray@USInstance@SpeedTree@@$00@SpeedTree@@QAEAAUSInstance@1@I@Z 100127d0 f i Culling.obj
 0001:000117f0       ?SetHeapDescription@?$CArray@USInstance@SpeedTree@@$00@SpeedTree@@QAEXPBD@Z 100127f0 f i Culling.obj
 0001:00011810       ??0?$CArray@US3dTreeInstanceLod@SpeedTree@@$00@SpeedTree@@QAE@ABV01@@Z 10012810 f i Culling.obj
 0001:00011860       ??0?$CArray@US3dTreeInstanceLod@SpeedTree@@$00@SpeedTree@@QAE@XZ 10012860 f i Culling.obj
 0001:000118b0       ??1?$CArray@US3dTreeInstanceLod@SpeedTree@@$00@SpeedTree@@UAE@XZ 100128b0 f i Culling.obj
 0001:000118f0       ?resize@?$CArray@US3dTreeInstanceLod@SpeedTree@@$00@SpeedTree@@QAE_NI@Z 100128f0 f i Culling.obj
 0001:00011930       ?push_back@?$CArray@US3dTreeInstanceLod@SpeedTree@@$00@SpeedTree@@QAE_NABUS3dTreeInstanceLod@2@@Z 10012930 f i Culling.obj
 0001:00011a20       ??4?$CArray@US3dTreeInstanceLod@SpeedTree@@$00@SpeedTree@@QAEAAV01@ABV01@@Z 10012a20 f i Culling.obj
 0001:00011b70       ??0?$CArray@PAUSInstance@SpeedTree@@$00@SpeedTree@@QAE@ABV01@@Z 10012b70 f i Culling.obj
 0001:00011bc0       ??0?$CArray@PAUSInstance@SpeedTree@@$00@SpeedTree@@QAE@XZ 10012bc0 f i Culling.obj
 0001:00011c10       ??1?$CArray@PAUSInstance@SpeedTree@@$00@SpeedTree@@UAE@XZ 10012c10 f i Culling.obj
 0001:00011c50       ??4?$CArray@PAUSInstance@SpeedTree@@$00@SpeedTree@@QAEAAV01@ABV01@@Z 10012c50 f i Culling.obj
 0001:00011d90       ??0?$CArray@VCCell@SpeedTree@@$00@SpeedTree@@QAE@ABV01@@Z 10012d90 f i Culling.obj
 0001:00011de0       ??0?$CArray@VCCell@SpeedTree@@$00@SpeedTree@@QAE@XZ 10012de0 f i Culling.obj
 0001:00011e30       ??1?$CArray@VCCell@SpeedTree@@$00@SpeedTree@@UAE@XZ 10012e30 f i Culling.obj
 0001:00011e70       ?empty@?$CArray@VCCell@SpeedTree@@$00@SpeedTree@@QBE_NXZ 10012e70 f i Culling.obj
 0001:00011e90       ?size@?$CArray@VCCell@SpeedTree@@$00@SpeedTree@@QBEIXZ 10012e90 f i Culling.obj
 0001:00011eb0       ?resize@?$CArray@VCCell@SpeedTree@@$00@SpeedTree@@QAE_NI@Z 10012eb0 f i Culling.obj
 0001:00011f00       ?reserve@?$CArray@VCCell@SpeedTree@@$00@SpeedTree@@QAE_NI@Z 10012f00 f i Culling.obj
 0001:00012040       ??A?$CArray@VCCell@SpeedTree@@$00@SpeedTree@@QAEAAVCCell@1@I@Z 10013040 f i Culling.obj
 0001:00012060       ??4?$CArray@VCCell@SpeedTree@@$00@SpeedTree@@QAEAAV01@ABV01@@Z 10013060 f i Culling.obj
 0001:000121f0       ?SetHeapDescription@?$CArray@VCCell@SpeedTree@@$00@SpeedTree@@QAEXPBD@Z 100131f0 f i Culling.obj
 0001:00012210       ??0?$CArray@PAUSHeapBlock@?$CCellHeapMgr@VCCell@SpeedTree@@@SpeedTree@@$00@SpeedTree@@QAE@ABV01@@Z 10013210 f i Culling.obj
 0001:00012260       ??1?$CArray@PAUSHeapBlock@?$CCellHeapMgr@VCCell@SpeedTree@@@SpeedTree@@$00@SpeedTree@@UAE@XZ 10013260 f i Culling.obj
 0001:000122a0       ??4?$CArray@PAUSHeapBlock@?$CCellHeapMgr@VCCell@SpeedTree@@@SpeedTree@@$00@SpeedTree@@QAEAAV01@ABV01@@Z 100132a0 f i Culling.obj
 0001:000123e0       ??0?$CArray@PAVCCell@SpeedTree@@$00@SpeedTree@@QAE@ABV01@@Z 100133e0 f i Culling.obj
 0001:00012430       ??0?$CArray@PAVCCell@SpeedTree@@$00@SpeedTree@@QAE@XZ 10013430 f i Culling.obj
 0001:00012480       ??1?$CArray@PAVCCell@SpeedTree@@$00@SpeedTree@@UAE@XZ 10013480 f i Culling.obj
 0001:000124c0       ?resize@?$CArray@PAVCCell@SpeedTree@@$00@SpeedTree@@QAE_NI@Z 100134c0 f i Culling.obj
 0001:00012500       ?reserve@?$CArray@PAVCCell@SpeedTree@@$00@SpeedTree@@QAE_NI@Z 10013500 f i Culling.obj
 0001:00012600       ?push_back@?$CArray@PAVCCell@SpeedTree@@$00@SpeedTree@@QAE_NABQAVCCell@2@@Z 10013600 f i Culling.obj
 0001:000126c0       ??4?$CArray@PAVCCell@SpeedTree@@$00@SpeedTree@@QAEAAV01@ABV01@@Z 100136c0 f i Culling.obj
 0001:00012800       ?SetHeapDescription@?$CArray@PAVCCell@SpeedTree@@$00@SpeedTree@@QAEXPBD@Z 10013800 f i Culling.obj
 0001:00012820       ??0?$CCellHeapMgr@VCCell@SpeedTree@@@SpeedTree@@QAE@W4EPopulationType@1@@Z 10013820 f i Culling.obj
 0001:000128f0       ??1?$CCellHeapMgr@VCCell@SpeedTree@@@SpeedTree@@QAE@XZ 100138f0 f i Culling.obj
 0001:00012a00       ?Init@?$CCellHeapMgr@VCCell@SpeedTree@@@SpeedTree@@QAEXHH@Z 10013a00 f i Culling.obj
 0001:00012a30       ?CheckOut@?$CCellHeapMgr@VCCell@SpeedTree@@@SpeedTree@@QAEPAVCCell@2@XZ 10013a30 f i Culling.obj
 0001:00012ba0       ?CheckIn@?$CCellHeapMgr@VCCell@SpeedTree@@@SpeedTree@@QAEXPAVCCell@2@@Z 10013ba0 f i Culling.obj
 0001:00012bc0       ??0?$CMap@USRowCol@SpeedTree@@PAVCCell@2@V?$CLess@USRowCol@SpeedTree@@@2@$00@SpeedTree@@QAE@ABV01@@Z 10013bc0 f i Culling.obj
 0001:00012cb0       ??0?$CMap@USRowCol@SpeedTree@@PAVCCell@2@V?$CLess@USRowCol@SpeedTree@@@2@$00@SpeedTree@@QAE@I@Z 10013cb0 f i Culling.obj
 0001:00012d30       ??1?$CMap@USRowCol@SpeedTree@@PAVCCell@2@V?$CLess@USRowCol@SpeedTree@@@2@$00@SpeedTree@@UAE@XZ 10013d30 f i Culling.obj
 0001:00012db0       ?clear@?$CMap@USRowCol@SpeedTree@@PAVCCell@2@V?$CLess@USRowCol@SpeedTree@@@2@$00@SpeedTree@@QAEXXZ 10013db0 f i Culling.obj
 0001:00012e20       ??A?$CMap@USRowCol@SpeedTree@@PAVCCell@2@V?$CLess@USRowCol@SpeedTree@@@2@$00@SpeedTree@@QAEAAPAVCCell@1@ABUSRowCol@1@@Z 10013e20 f i Culling.obj
 0001:00013110       ??4?$CMap@USRowCol@SpeedTree@@PAVCCell@2@V?$CLess@USRowCol@SpeedTree@@@2@$00@SpeedTree@@QAEAAV01@ABV01@@Z 10014110 f i Culling.obj
 0001:00013a70       ?begin@?$CMap@USRowCol@SpeedTree@@PAVCCell@2@V?$CLess@USRowCol@SpeedTree@@@2@$00@SpeedTree@@QAE?AViterator@12@XZ 10014a70 f i Culling.obj
 0001:00013b20       ?end@?$CMap@USRowCol@SpeedTree@@PAVCCell@2@V?$CLess@USRowCol@SpeedTree@@@2@$00@SpeedTree@@QAE?AViterator@12@XZ 10014b20 f i Culling.obj
 0001:00013b50       ?find@?$CMap@USRowCol@SpeedTree@@PAVCCell@2@V?$CLess@USRowCol@SpeedTree@@@2@$00@SpeedTree@@QBE?AViterator@12@ABUSRowCol@2@@Z 10014b50 f i Culling.obj
 0001:00013ca0       ?erase@?$CMap@USRowCol@SpeedTree@@PAVCCell@2@V?$CLess@USRowCol@SpeedTree@@@2@$00@SpeedTree@@QAE?AViterator@12@V312@@Z 10014ca0 f i Culling.obj
 0001:00014d80       ?SetHeapDescription@?$CMap@USRowCol@SpeedTree@@PAVCCell@2@V?$CLess@USRowCol@SpeedTree@@@2@$00@SpeedTree@@QAEXPBD@Z 10015d80 f i Culling.obj
 0001:00014da0       ??0?$CArray@USDetailedCullData@SpeedTree@@$00@SpeedTree@@QAE@ABV01@@Z 10015da0 f i Culling.obj
 0001:00014df0       ??0?$CArray@USDetailedCullData@SpeedTree@@$00@SpeedTree@@QAE@XZ 10015df0 f i Culling.obj
 0001:00014e40       ??1?$CArray@USDetailedCullData@SpeedTree@@$00@SpeedTree@@UAE@XZ 10015e40 f i Culling.obj
 0001:00014e90       ?clear@?$CArray@USDetailedCullData@SpeedTree@@$00@SpeedTree@@QAEXXZ 10015e90 f i Culling.obj
 0001:00014f50       ?size@?$CArray@USDetailedCullData@SpeedTree@@$00@SpeedTree@@QBEIXZ 10015f50 f i Culling.obj
 0001:00014f70       ?resize@?$CArray@USDetailedCullData@SpeedTree@@$00@SpeedTree@@QAE_NI@Z 10015f70 f i Culling.obj
 0001:00014fc0       ?back@?$CArray@USDetailedCullData@SpeedTree@@$00@SpeedTree@@QAEAAUSDetailedCullData@2@XZ 10015fc0 f i Culling.obj
 0001:00014fe0       ??A?$CArray@USDetailedCullData@SpeedTree@@$00@SpeedTree@@QAEAAUSDetailedCullData@1@I@Z 10015fe0 f i Culling.obj
 0001:00015000       ??4?$CArray@USDetailedCullData@SpeedTree@@$00@SpeedTree@@QAEAAV01@ABV01@@Z 10016000 f i Culling.obj
 0001:00015190       ?SetHeapDescription@?$CArray@USDetailedCullData@SpeedTree@@$00@SpeedTree@@QAEXPBD@Z 10016190 f i Culling.obj
 0001:000151b0       ??1?$CArray@PAVCCore@SpeedTree@@$00@SpeedTree@@UAE@XZ 100161b0 f i Culling.obj
 0001:000151f0       ?size@?$CArray@PAVCCore@SpeedTree@@$00@SpeedTree@@QBEIXZ 100161f0 f i Culling.obj
 0001:00015210       ??A?$CArray@PAVCCore@SpeedTree@@$00@SpeedTree@@QBEABQAVCCore@1@I@Z 10016210 f i Culling.obj
 0001:00015230       ??9iterator_base@?$CMap@USRowCol@SpeedTree@@PAVCCell@2@V?$CLess@USRowCol@SpeedTree@@@2@$00@SpeedTree@@QBE_NABV012@@Z 10016230 f i Culling.obj
 0001:00015250       ??Eiterator_base@?$CMap@USRowCol@SpeedTree@@PAVCCell@2@V?$CLess@USRowCol@SpeedTree@@@2@$00@SpeedTree@@QAEAAV012@XZ 10016250 f i Culling.obj
 0001:00015430       ??0iterator_base@?$CMap@USRowCol@SpeedTree@@PAVCCell@2@V?$CLess@USRowCol@SpeedTree@@@2@$00@SpeedTree@@IAE@PAXPBV?$CBlockPool@$00@2@@Z 10016430 f i Culling.obj
 0001:00015460       ??0const_iterator@?$CMap@USRowCol@SpeedTree@@PAVCCell@2@V?$CLess@USRowCol@SpeedTree@@@2@$00@SpeedTree@@QAE@ABViterator@12@@Z 10016460 f i Culling.obj
 0001:000154a0       ??0const_iterator@?$CMap@USRowCol@SpeedTree@@PAVCCell@2@V?$CLess@USRowCol@SpeedTree@@@2@$00@SpeedTree@@QAE@PAXPBV?$CBlockPool@$00@2@@Z 100164a0 f i Culling.obj
 0001:000154d0       ??Cconst_iterator@?$CMap@USRowCol@SpeedTree@@PAVCCell@2@V?$CLess@USRowCol@SpeedTree@@@2@$00@SpeedTree@@QBEPBVCNode@12@XZ 100164d0 f i Culling.obj
 0001:00015520       ??0iterator@?$CMap@USRowCol@SpeedTree@@PAVCCell@2@V?$CLess@USRowCol@SpeedTree@@@2@$00@SpeedTree@@QAE@ABV012@@Z 10016520 f i Culling.obj
 0001:00015560       ??0iterator@?$CMap@USRowCol@SpeedTree@@PAVCCell@2@V?$CLess@USRowCol@SpeedTree@@@2@$00@SpeedTree@@QAE@PAXPBV?$CBlockPool@$00@2@@Z 10016560 f i Culling.obj
 0001:00015590       ??Citerator@?$CMap@USRowCol@SpeedTree@@PAVCCell@2@V?$CLess@USRowCol@SpeedTree@@@2@$00@SpeedTree@@QBEPAVCNode@12@XZ 10016590 f i Culling.obj
 0001:000155e0       ??0?$CBasicFixedString@$0IAA@@SpeedTree@@QAE@PBD@Z 100165e0 f i Culling.obj
 0001:00015610       ??1?$CBasicFixedString@$0IAA@@SpeedTree@@UAE@XZ 10016610 f i Culling.obj
 0001:00015630       ?c_str@?$CBasicFixedString@$0IAA@@SpeedTree@@QBEPBDXZ 10016630 f i Culling.obj
 0001:00015650       ??1?$CArray@V?$CBasicFixedString@$0BAA@@SpeedTree@@$00@SpeedTree@@UAE@XZ 10016650 f i Culling.obj
 0001:00015690       ?push_back@?$CArray@V?$CBasicFixedString@$0BAA@@SpeedTree@@$00@SpeedTree@@QAE_NABV?$CBasicFixedString@$0BAA@@2@@Z 10016690 f i Culling.obj
 0001:00015760       ??9iterator_base@?$CMap@PBVCCore@SpeedTree@@V?$CArray@USInstance@SpeedTree@@$00@2@V?$CLess@PBVCCore@SpeedTree@@@2@$00@SpeedTree@@QBE_NABV012@@Z 10016760 f i Culling.obj
 0001:00015780       ??0iterator_base@?$CMap@PBVCCore@SpeedTree@@V?$CArray@USInstance@SpeedTree@@$00@2@V?$CLess@PBVCCore@SpeedTree@@@2@$00@SpeedTree@@IAE@PAXPBV?$CBlockPool@$00@2@@Z 10016780 f i Culling.obj
 0001:000157b0       ??0const_iterator@?$CMap@PBVCCore@SpeedTree@@V?$CArray@USInstance@SpeedTree@@$00@2@V?$CLess@PBVCCore@SpeedTree@@@2@$00@SpeedTree@@QAE@ABViterator@12@@Z 100167b0 f i Culling.obj
 0001:000157f0       ??0const_iterator@?$CMap@PBVCCore@SpeedTree@@V?$CArray@USInstance@SpeedTree@@$00@2@V?$CLess@PBVCCore@SpeedTree@@@2@$00@SpeedTree@@QAE@PAXPBV?$CBlockPool@$00@2@@Z 100167f0 f i Culling.obj
 0001:00015820       ??0iterator@?$CMap@PBVCCore@SpeedTree@@V?$CArray@USInstance@SpeedTree@@$00@2@V?$CLess@PBVCCore@SpeedTree@@@2@$00@SpeedTree@@QAE@PAXPBV?$CBlockPool@$00@2@@Z 10016820 f i Culling.obj
 0001:00015850       ??4CCell@SpeedTree@@QAEAAV01@ABV01@@Z 10016850 f i Culling.obj
 0001:00015930       ??1SHeapBlock@?$CCellHeapMgr@VCCell@SpeedTree@@@SpeedTree@@QAE@XZ 10016930 f i Culling.obj
 0001:000159d0       ??0SHeapBlock@?$CCellHeapMgr@VCCell@SpeedTree@@@SpeedTree@@QAE@ABU012@@Z 100169d0 f i Culling.obj
 0001:00015aa0       ??4SHeapBlock@?$CCellHeapMgr@VCCell@SpeedTree@@@SpeedTree@@QAEAAU012@ABU012@@Z 10016aa0 f i Culling.obj
 0001:00015ad0       ??4?$CHeapAllocCheck@V?$CArray@PAUSHeapBlock@?$CCellHeapMgr@VCCell@SpeedTree@@@SpeedTree@@$00@SpeedTree@@@SpeedTree@@QAEAAV01@ABV01@@Z 10016ad0 f i Culling.obj
 0001:00015ae0       ??_G?$CArray@PAX$00@SpeedTree@@UAEPAXI@Z 10016ae0 f i Culling.obj
 0001:00015b30       ??_E?$CArray@PAX$00@SpeedTree@@UAEPAXI@Z 10016b30 f i Culling.obj
 0001:00015bc0       ??0?$CHeapAllocCheck@V?$CArray@PAUSHeapBlock@?$CCellHeapMgr@VCCell@SpeedTree@@@SpeedTree@@$00@SpeedTree@@@SpeedTree@@QAE@ABV?$CArray@PAUSHeapBlock@?$CCellHeapMgr@VCCell@SpeedTree@@@SpeedTree@@$00@1@W4ESdkLimit@1@PBDH@Z 10016bc0 f i Culling.obj
 0001:00015bd0       ?resize@?$CBasicFixedString@$0BAA@@SpeedTree@@QAE_NI@Z 10016bd0 f i Culling.obj
 0001:00015c20       ?clear@?$CArray@D$00@SpeedTree@@QAEXXZ 10016c20 f i Culling.obj
 0001:00015cb0       ?reserve@?$CArray@D$00@SpeedTree@@QAE_NI@Z 10016cb0 f i Culling.obj
 0001:00015db0       ?SetExternalMemory@?$CArray@D$00@SpeedTree@@QAEXPAEI@Z 10016db0 f i Culling.obj
 0001:00015e60       ??0?$CBasicString@$00@SpeedTree@@QAE@PBD@Z 10016e60 f i Culling.obj
 0001:00015f10       ?clear@?$CArray@PAUSNode@CScopeTrace@SpeedTree@@$00@SpeedTree@@QAEXXZ 10016f10 f i Culling.obj
 0001:00015fa0       ?SetExternalMemory@?$CArray@PAUSNode@CScopeTrace@SpeedTree@@$00@SpeedTree@@QAEXPAEI@Z 10016fa0 f i Culling.obj
 0001:00016050       ??0?$CBlockPool@$00@SpeedTree@@QAE@II@Z 10017050 f i Culling.obj
 0001:000160b0       ?size@?$CBlockPool@$00@SpeedTree@@QBEIXZ 100170b0 f i Culling.obj
 0001:000160d0       ?clear@?$CBlockPool@$00@SpeedTree@@QAEX_N@Z 100170d0 f i Culling.obj
 0001:00016190       ?DeleteChildren@CNode@?$CMap@PBVCCore@SpeedTree@@V?$CArray@USInstance@SpeedTree@@$00@2@V?$CLess@PBVCCore@SpeedTree@@@2@$00@SpeedTree@@AAEXPAV23@@Z 10017190 f i Culling.obj
 0001:00016240       ??4?$CMap@PBVCCore@SpeedTree@@V?$CArray@USInstance@SpeedTree@@$00@2@V?$CLess@PBVCCore@SpeedTree@@@2@$00@SpeedTree@@QAEAAV01@ABV01@@Z 10017240 f i Culling.obj
 0001:00016b90       ?Rebalance@?$CMap@PBVCCore@SpeedTree@@V?$CArray@USInstance@SpeedTree@@$00@2@V?$CLess@PBVCCore@SpeedTree@@@2@$00@SpeedTree@@IAEXPAX@Z 10017b90 f i Culling.obj
 0001:000177b0       ?Allocate@?$CMap@PBVCCore@SpeedTree@@V?$CArray@USInstance@SpeedTree@@$00@2@V?$CLess@PBVCCore@SpeedTree@@@2@$00@SpeedTree@@IAEPAXABQBVCCore@2@PAX@Z 100187b0 f i Culling.obj
 0001:00017890       ?Deallocate@?$CMap@PBVCCore@SpeedTree@@V?$CArray@USInstance@SpeedTree@@$00@2@V?$CLess@PBVCCore@SpeedTree@@@2@$00@SpeedTree@@IAEXAAPAX@Z 10018890 f i Culling.obj
 0001:00017920       ?Ptr@?$CMap@PBVCCore@SpeedTree@@V?$CArray@USInstance@SpeedTree@@$00@2@V?$CLess@PBVCCore@SpeedTree@@@2@$00@SpeedTree@@IBEPAVCNode@12@PAX@Z 10018920 f i Culling.obj
 0001:00017950       ?clear@?$CArray@PBUSTreeInstance@SpeedTree@@$00@SpeedTree@@QAEXXZ 10018950 f i Culling.obj
 0001:000179e0       ?reserve@?$CArray@PBUSTreeInstance@SpeedTree@@$00@SpeedTree@@QAE_NI@Z 100189e0 f i Culling.obj
 0001:00017ae0       ??4?$CArray@PBUSTreeInstance@SpeedTree@@$00@SpeedTree@@QAEAAV01@ABV01@@Z 10018ae0 f i Culling.obj
 0001:00017c20       ?SetExternalMemory@?$CArray@PBUSTreeInstance@SpeedTree@@$00@SpeedTree@@QAEXPAEI@Z 10018c20 f i Culling.obj
 0001:00017cd0       ??0?$CArray@USInstance@SpeedTree@@$00@SpeedTree@@QAE@ABV01@@Z 10018cd0 f i Culling.obj
 0001:00017d20       ?reserve@?$CArray@USInstance@SpeedTree@@$00@SpeedTree@@QAE_NI@Z 10018d20 f i Culling.obj
 0001:00017e20       ??4?$CArray@USInstance@SpeedTree@@$00@SpeedTree@@QAEAAV01@ABV01@@Z 10018e20 f i Culling.obj
 0001:00017f60       ?SetExternalMemory@?$CArray@USInstance@SpeedTree@@$00@SpeedTree@@QAEXPAEI@Z 10018f60 f i Culling.obj
 0001:00018070       ??3@YAXPAX0@Z              10019070 f i Culling.obj
 0001:00018080       ?Deallocate@?$CArray@USInstance@SpeedTree@@$00@SpeedTree@@IAEXPAUSInstance@2@@Z 10019080 f i Culling.obj
 0001:000180d0       ?clear@?$CArray@US3dTreeInstanceLod@SpeedTree@@$00@SpeedTree@@QAEXXZ 100190d0 f i Culling.obj
 0001:00018160       ?reserve@?$CArray@US3dTreeInstanceLod@SpeedTree@@$00@SpeedTree@@QAE_NI@Z 10019160 f i Culling.obj
 0001:00018270       ?SetExternalMemory@?$CArray@US3dTreeInstanceLod@SpeedTree@@$00@SpeedTree@@QAEXPAEI@Z 10019270 f i Culling.obj
 0001:00018330       ?Allocate@?$CArray@US3dTreeInstanceLod@SpeedTree@@$00@SpeedTree@@IAEPAUS3dTreeInstanceLod@2@I@Z 10019330 f i Culling.obj
 0001:000183b0       ?Deallocate@?$CArray@US3dTreeInstanceLod@SpeedTree@@$00@SpeedTree@@IAEXPAUS3dTreeInstanceLod@2@@Z 100193b0 f i Culling.obj
 0001:00018400       ?clear@?$CArray@PAUSInstance@SpeedTree@@$00@SpeedTree@@QAEXXZ 10019400 f i Culling.obj
 0001:00018490       ?SetExternalMemory@?$CArray@PAUSInstance@SpeedTree@@$00@SpeedTree@@QAEXPAEI@Z 10019490 f i Culling.obj
 0001:00018540       ?Allocate@?$CArray@PAUSInstance@SpeedTree@@$00@SpeedTree@@IAEPAPAUSInstance@2@I@Z 10019540 f i Culling.obj
 0001:000185c0       ?Deallocate@?$CArray@PAUSInstance@SpeedTree@@$00@SpeedTree@@IAEXPAPAUSInstance@2@@Z 100195c0 f i Culling.obj
 0001:00018610       ?clear@?$CArray@VCCell@SpeedTree@@$00@SpeedTree@@QAEXXZ 10019610 f i Culling.obj
 0001:000186a0       ?SetExternalMemory@?$CArray@VCCell@SpeedTree@@$00@SpeedTree@@QAEXPAEI@Z 100196a0 f i Culling.obj
 0001:000187e0       ??0CCell@SpeedTree@@QAE@XZ 100197e0 f i Culling.obj
 0001:00018910       ??1CCell@SpeedTree@@QAE@XZ 10019910 f i Culling.obj
 0001:00018a00       ?Allocate@?$CArray@VCCell@SpeedTree@@$00@SpeedTree@@IAEPAVCCell@2@I@Z 10019a00 f i Culling.obj
 0001:00018b10       ?Deallocate@?$CArray@VCCell@SpeedTree@@$00@SpeedTree@@IAEXPAVCCell@2@@Z 10019b10 f i Culling.obj
 0001:00018b70       ??0?$CArray@PAUSHeapBlock@?$CCellHeapMgr@VCCell@SpeedTree@@@SpeedTree@@$00@SpeedTree@@QAE@XZ 10019b70 f i Culling.obj
 0001:00018bc0       ?clear@?$CArray@PAUSHeapBlock@?$CCellHeapMgr@VCCell@SpeedTree@@@SpeedTree@@$00@SpeedTree@@QAEXXZ 10019bc0 f i Culling.obj
 0001:00018c50       ?size@?$CArray@PAUSHeapBlock@?$CCellHeapMgr@VCCell@SpeedTree@@@SpeedTree@@$00@SpeedTree@@QBEIXZ 10019c50 f i Culling.obj
 0001:00018c70       ??A?$CArray@PAUSHeapBlock@?$CCellHeapMgr@VCCell@SpeedTree@@@SpeedTree@@$00@SpeedTree@@QAEAAPAUSHeapBlock@?$CCellHeapMgr@VCCell@SpeedTree@@@1@I@Z 10019c70 f i Culling.obj
 0001:00018c90       ?SetExternalMemory@?$CArray@PAUSHeapBlock@?$CCellHeapMgr@VCCell@SpeedTree@@@SpeedTree@@$00@SpeedTree@@QAEXPAEI@Z 10019c90 f i Culling.obj
 0001:00018d40       ?SetHeapDescription@?$CArray@PAUSHeapBlock@?$CCellHeapMgr@VCCell@SpeedTree@@@SpeedTree@@$00@SpeedTree@@QAEXPBD@Z 10019d40 f i Culling.obj
 0001:00018d60       ?Allocate@?$CArray@PAUSHeapBlock@?$CCellHeapMgr@VCCell@SpeedTree@@@SpeedTree@@$00@SpeedTree@@IAEPAPAUSHeapBlock@?$CCellHeapMgr@VCCell@SpeedTree@@@2@I@Z 10019d60 f i Culling.obj
 0001:00018de0       ?Deallocate@?$CArray@PAUSHeapBlock@?$CCellHeapMgr@VCCell@SpeedTree@@@SpeedTree@@$00@SpeedTree@@IAEXPAPAUSHeapBlock@?$CCellHeapMgr@VCCell@SpeedTree@@@2@@Z 10019de0 f i Culling.obj
 0001:00018e30       ?clear@?$CArray@PAVCCell@SpeedTree@@$00@SpeedTree@@QAEXXZ 10019e30 f i Culling.obj
 0001:00018ec0       ?empty@?$CArray@PAVCCell@SpeedTree@@$00@SpeedTree@@QBE_NXZ 10019ec0 f i Culling.obj
 0001:00018ee0       ?pop_back@?$CArray@PAVCCell@SpeedTree@@$00@SpeedTree@@QAEXXZ 10019ee0 f i Culling.obj
 0001:00018f10       ?back@?$CArray@PAVCCell@SpeedTree@@$00@SpeedTree@@QAEAAPAVCCell@2@XZ 10019f10 f i Culling.obj
 0001:00018f30       ?SetExternalMemory@?$CArray@PAVCCell@SpeedTree@@$00@SpeedTree@@QAEXPAEI@Z 10019f30 f i Culling.obj
 0001:00018fe0       ?Allocate@?$CArray@PAVCCell@SpeedTree@@$00@SpeedTree@@IAEPAPAVCCell@2@I@Z 10019fe0 f i Culling.obj
 0001:00019060       ?Deallocate@?$CArray@PAVCCell@SpeedTree@@$00@SpeedTree@@IAEXPAPAVCCell@2@@Z 1001a060 f i Culling.obj
 0001:000190b0       ?Grow@?$CCellHeapMgr@VCCell@SpeedTree@@@SpeedTree@@AAEXXZ 1001a0b0 f i Culling.obj
 0001:000193b0       ?IsInitialized@?$CCellHeapMgr@VCCell@SpeedTree@@@SpeedTree@@ABE_NXZ 1001a3b0 f i Culling.obj
 0001:000193f0       ??$st_delete@USHeapBlock@?$CCellHeapMgr@VCCell@SpeedTree@@@SpeedTree@@@SpeedTree@@YAXAAPAUSHeapBlock@?$CCellHeapMgr@VCCell@SpeedTree@@@0@@Z 1001a3f0 f i Culling.obj
 0001:00019480       ?Rebalance@?$CMap@USRowCol@SpeedTree@@PAVCCell@2@V?$CLess@USRowCol@SpeedTree@@@2@$00@SpeedTree@@IAEXPAX@Z 1001a480 f i Culling.obj
 0001:0001a0a0       ?Allocate@?$CMap@USRowCol@SpeedTree@@PAVCCell@2@V?$CLess@USRowCol@SpeedTree@@@2@$00@SpeedTree@@IAEPAXABUSRowCol@2@PAX@Z 1001b0a0 f i Culling.obj
 0001:0001a140       ?Deallocate@?$CMap@USRowCol@SpeedTree@@PAVCCell@2@V?$CLess@USRowCol@SpeedTree@@@2@$00@SpeedTree@@IAEXAAPAX@Z 1001b140 f i Culling.obj
 0001:0001a1b0       ?Ptr@?$CMap@USRowCol@SpeedTree@@PAVCCell@2@V?$CLess@USRowCol@SpeedTree@@@2@$00@SpeedTree@@IBEPAVCNode@12@PAX@Z 1001b1b0 f i Culling.obj
 0001:0001a1e0       ??0?$CArray@PAX$00@SpeedTree@@QAE@XZ 1001b1e0 f i Culling.obj
 0001:0001a230       ??1?$CArray@PAX$00@SpeedTree@@UAE@XZ 1001b230 f i Culling.obj
 0001:0001a270       ?empty@?$CArray@PAX$00@SpeedTree@@QBE_NXZ 1001b270 f i Culling.obj
 0001:0001a290       ?push_back@?$CArray@PAX$00@SpeedTree@@QAE_NABQAX@Z 1001b290 f i Culling.obj
 0001:0001a350       ?pop_back@?$CArray@PAX$00@SpeedTree@@QAEXXZ 1001b350 f i Culling.obj
 0001:0001a380       ?back@?$CArray@PAX$00@SpeedTree@@QAEAAPAXXZ 1001b380 f i Culling.obj
 0001:0001a3a0       ?reserve@?$CArray@USDetailedCullData@SpeedTree@@$00@SpeedTree@@QAE_NI@Z 1001b3a0 f i Culling.obj
 0001:0001a4d0       ?SetExternalMemory@?$CArray@USDetailedCullData@SpeedTree@@$00@SpeedTree@@QAEXPAEI@Z 1001b4d0 f i Culling.obj
 0001:0001a610       ?Allocate@?$CArray@USDetailedCullData@SpeedTree@@$00@SpeedTree@@IAEPAUSDetailedCullData@2@I@Z 1001b610 f i Culling.obj
 0001:0001a720       ?Deallocate@?$CArray@USDetailedCullData@SpeedTree@@$00@SpeedTree@@IAEXPAUSDetailedCullData@2@@Z 1001b720 f i Culling.obj
 0001:0001a780       ?clear@?$CArray@PAVCCore@SpeedTree@@$00@SpeedTree@@QAEXXZ 1001b780 f i Culling.obj
 0001:0001a810       ?SetExternalMemory@?$CArray@PAVCCore@SpeedTree@@$00@SpeedTree@@QAEXPAEI@Z 1001b810 f i Culling.obj
 0001:0001a8c0       ??4?$CBasicFixedString@$0IAA@@SpeedTree@@QAEAAV01@PBD@Z 1001b8c0 f i Culling.obj
 0001:0001a930       ?clear@?$CArray@V?$CBasicFixedString@$0BAA@@SpeedTree@@$00@SpeedTree@@QAEXXZ 1001b930 f i Culling.obj
 0001:0001a990       ?reserve@?$CArray@V?$CBasicFixedString@$0BAA@@SpeedTree@@$00@SpeedTree@@QAE_NI@Z 1001b990 f i Culling.obj
 0001:0001aa60       ?SetExternalMemory@?$CArray@V?$CBasicFixedString@$0BAA@@SpeedTree@@$00@SpeedTree@@QAEXPAEI@Z 1001ba60 f i Culling.obj
 0001:0001abb0       ?DeleteChildren@CNode@?$CMap@USRowCol@SpeedTree@@PAVCCell@2@V?$CLess@USRowCol@SpeedTree@@@2@$00@SpeedTree@@AAEXPAV23@@Z 1001bbb0 f i Culling.obj
 0001:0001ac60       ?Ptr@iterator_base@?$CMap@USRowCol@SpeedTree@@PAVCCell@2@V?$CLess@USRowCol@SpeedTree@@@2@$00@SpeedTree@@IBEPAVCNode@23@XZ 1001bc60 f i Culling.obj
 0001:0001acb0       ??_ECCell@SpeedTree@@QAEPAXI@Z 1001bcb0 f i Culling.obj
 0001:0001ad20       ??_ESDetailedCullData@SpeedTree@@QAEPAXI@Z 1001bd20 f i Culling.obj
 0001:0001ad90       ??1CNode@?$CMap@PBVCCore@SpeedTree@@V?$CArray@USInstance@SpeedTree@@$00@2@V?$CLess@PBVCCore@SpeedTree@@@2@$00@SpeedTree@@QAE@XZ 1001bd90 f i Culling.obj
 0001:0001add0       ??0SHeapBlock@?$CCellHeapMgr@VCCell@SpeedTree@@@SpeedTree@@QAE@XZ 1001bdd0 f i Culling.obj
 0001:0001ae70       ??0?$CArray@D$00@SpeedTree@@QAE@XZ 1001be70 f i Culling.obj
 0001:0001aec0       ?SetHeapDescription@?$CArray@D$00@SpeedTree@@QAEXPBD@Z 1001bec0 f i Culling.obj
 0001:0001aee0       ?Allocate@?$CArray@D$00@SpeedTree@@IAEPADI@Z 1001bee0 f i Culling.obj
 0001:0001af50       ?Deallocate@?$CArray@D$00@SpeedTree@@IAEXPAD@Z 1001bf50 f i Culling.obj
 0001:0001afa0       ??4?$CBasicString@$00@SpeedTree@@QAEAAV01@PBD@Z 1001bfa0 f i Culling.obj
 0001:0001b020       ?Deallocate@?$CArray@PAUSNode@CScopeTrace@SpeedTree@@$00@SpeedTree@@IAEXPAPAUSNode@CScopeTrace@2@@Z 1001c020 f i Culling.obj
 0001:0001b070       ?resize@?$CBlockPool@$00@SpeedTree@@QAEXI@Z 1001c070 f i Culling.obj
 0001:0001b270       ?GrabBlock@?$CBlockPool@$00@SpeedTree@@QAEPAXXZ 1001c270 f i Culling.obj
 0001:0001b2c0       ?ReleaseBlock@?$CBlockPool@$00@SpeedTree@@QAEXAAPAX@Z 1001c2c0 f i Culling.obj
 0001:0001b300       ?ResolveBlock@?$CBlockPool@$00@SpeedTree@@QBEPAXABQAX@Z 1001c300 f i Culling.obj
 0001:0001b340       ??$st_delete_array@D@SpeedTree@@YAXAAPAD@Z 1001c340 f i Culling.obj
 0001:0001b3f0       ??$st_delete_array@I@SpeedTree@@YAXAAPAI@Z 1001c3f0 f i Culling.obj
 0001:0001b4a0       ?Allocate@?$CArray@USInstance@SpeedTree@@$00@SpeedTree@@IAEPAUSInstance@2@I@Z 1001c4a0 f i Culling.obj
 0001:0001b5a0       ?clear@?$CArray@PAX$00@SpeedTree@@QAEXXZ 1001c5a0 f i Culling.obj
 0001:0001b630       ?reserve@?$CArray@PAX$00@SpeedTree@@QAE_NI@Z 1001c630 f i Culling.obj
 0001:0001b730       ?SetExternalMemory@?$CArray@PAX$00@SpeedTree@@QAEXPAEI@Z 1001c730 f i Culling.obj
 0001:0001b7e0       ?Allocate@?$CArray@PBUSTreeInstance@SpeedTree@@$00@SpeedTree@@IAEPAPBUSTreeInstance@2@I@Z 1001c7e0 f i Culling.obj
 0001:0001b860       ?Deallocate@?$CArray@PBUSTreeInstance@SpeedTree@@$00@SpeedTree@@IAEXPAPBUSTreeInstance@2@@Z 1001c860 f i Culling.obj
 0001:0001b8b0       ??$st_delete_array@USInstance@SpeedTree@@@SpeedTree@@YAXAAPAUSInstance@0@@Z 1001c8b0 f i Culling.obj
 0001:0001b960       ??$st_new_array@US3dTreeInstanceLod@SpeedTree@@@SpeedTree@@YAPAUS3dTreeInstanceLod@0@IPBDW4EAllocationType@0@@Z 1001c960 f i Culling.obj
 0001:0001ba70       ??$st_delete_array@US3dTreeInstanceLod@SpeedTree@@@SpeedTree@@YAXAAPAUS3dTreeInstanceLod@0@@Z 1001ca70 f i Culling.obj
 0001:0001bb20       ??$st_new_array@PAUSInstance@SpeedTree@@@SpeedTree@@YAPAPAUSInstance@0@IPBDW4EAllocationType@0@@Z 1001cb20 f i Culling.obj
 0001:0001bc30       ??$st_delete_array@PAUSInstance@SpeedTree@@@SpeedTree@@YAXAAPAPAUSInstance@0@@Z 1001cc30 f i Culling.obj
 0001:0001bce0       ??$st_new_array@VCCell@SpeedTree@@@SpeedTree@@YAPAVCCell@0@IPBDW4EAllocationType@0@@Z 1001cce0 f i Culling.obj
 0001:0001be50       ??$st_delete_array@VCCell@SpeedTree@@@SpeedTree@@YAXAAPAVCCell@0@@Z 1001ce50 f i Culling.obj
 0001:0001bf30       ?resize@?$CArray@PAUSHeapBlock@?$CCellHeapMgr@VCCell@SpeedTree@@@SpeedTree@@$00@SpeedTree@@QAE_NI@Z 1001cf30 f i Culling.obj
 0001:0001bf70       ?back@?$CArray@PAUSHeapBlock@?$CCellHeapMgr@VCCell@SpeedTree@@@SpeedTree@@$00@SpeedTree@@QAEAAPAUSHeapBlock@?$CCellHeapMgr@VCCell@SpeedTree@@@2@XZ 1001cf70 f i Culling.obj
 0001:0001bf90       ??$st_new_array@PAUSHeapBlock@?$CCellHeapMgr@VCCell@SpeedTree@@@SpeedTree@@@SpeedTree@@YAPAPAUSHeapBlock@?$CCellHeapMgr@VCCell@SpeedTree@@@0@IPBDW4EAllocationType@0@@Z 1001cf90 f i Culling.obj
 0001:0001c0a0       ??$st_delete_array@PAUSHeapBlock@?$CCellHeapMgr@VCCell@SpeedTree@@@SpeedTree@@@SpeedTree@@YAXAAPAPAUSHeapBlock@?$CCellHeapMgr@VCCell@SpeedTree@@@0@@Z 1001d0a0 f i Culling.obj
 0001:0001c150       ?size@?$CArray@PAVCCell@SpeedTree@@$00@SpeedTree@@QBEIXZ 1001d150 f i Culling.obj
 0001:0001c170       ??A?$CArray@PAVCCell@SpeedTree@@$00@SpeedTree@@QAEAAPAVCCell@1@I@Z 1001d170 f i Culling.obj
 0001:0001c190       ??$st_new_array@PAVCCell@SpeedTree@@@SpeedTree@@YAPAPAVCCell@0@IPBDW4EAllocationType@0@@Z 1001d190 f i Culling.obj
 0001:0001c2a0       ??$st_delete_array@PAVCCell@SpeedTree@@@SpeedTree@@YAXAAPAPAVCCell@0@@Z 1001d2a0 f i Culling.obj
 0001:0001c350       ?InitCell@?$CCellHeapMgr@VCCell@SpeedTree@@@SpeedTree@@ABEXAAVCCell@2@@Z 1001d350 f i Culling.obj
 0001:0001c380       ??$st_allocate@USHeapBlock@?$CCellHeapMgr@VCCell@SpeedTree@@@SpeedTree@@@SpeedTree@@YAPAUSHeapBlock@?$CCellHeapMgr@VCCell@SpeedTree@@@0@PBDW4EAllocationType@0@@Z 1001d380 f i Culling.obj
 0001:0001c450       ??$st_new_array@USDetailedCullData@SpeedTree@@@SpeedTree@@YAPAUSDetailedCullData@0@IPBDW4EAllocationType@0@@Z 1001d450 f i Culling.obj
 0001:0001c5c0       ??$st_delete_array@USDetailedCullData@SpeedTree@@@SpeedTree@@YAXAAPAUSDetailedCullData@0@@Z 1001d5c0 f i Culling.obj
 0001:0001c6a0       ?Deallocate@?$CArray@PAVCCore@SpeedTree@@$00@SpeedTree@@IAEXPAPAVCCore@2@@Z 1001d6a0 f i Culling.obj
 0001:0001c6f0       ?Allocate@?$CArray@V?$CBasicFixedString@$0BAA@@SpeedTree@@$00@SpeedTree@@IAEPAV?$CBasicFixedString@$0BAA@@2@I@Z 1001d6f0 f i Culling.obj
 0001:0001c800       ?Deallocate@?$CArray@V?$CBasicFixedString@$0BAA@@SpeedTree@@$00@SpeedTree@@IAEXPAV?$CBasicFixedString@$0BAA@@2@@Z 1001d800 f i Culling.obj
 0001:0001c880       ??$st_new_array@D@SpeedTree@@YAPADIPBDW4EAllocationType@0@@Z 1001d880 f i Culling.obj
 0001:0001c990       ??$st_delete_array@PAUSNode@CScopeTrace@SpeedTree@@@SpeedTree@@YAXAAPAPAUSNode@CScopeTrace@0@@Z 1001d990 f i Culling.obj
 0001:0001ca40       ??$st_new_array@I@SpeedTree@@YAPAIIPBDW4EAllocationType@0@@Z 1001da40 f i Culling.obj
 0001:0001cb50       ??$st_new_array@USInstance@SpeedTree@@@SpeedTree@@YAPAUSInstance@0@IPBDW4EAllocationType@0@@Z 1001db50 f i Culling.obj
 0001:0001ccc0       ?Allocate@?$CArray@PAX$00@SpeedTree@@IAEPAPAXI@Z 1001dcc0 f i Culling.obj
 0001:0001cd40       ?Deallocate@?$CArray@PAX$00@SpeedTree@@IAEXPAPAX@Z 1001dd40 f i Culling.obj
 0001:0001cd90       ??$st_new_array@PBUSTreeInstance@SpeedTree@@@SpeedTree@@YAPAPBUSTreeInstance@0@IPBDW4EAllocationType@0@@Z 1001dd90 f i Culling.obj
 0001:0001cea0       ??$st_delete_array@PBUSTreeInstance@SpeedTree@@@SpeedTree@@YAXAAPAPBUSTreeInstance@0@@Z 1001dea0 f i Culling.obj
 0001:0001cf50       ?reserve@?$CArray@PAUSHeapBlock@?$CCellHeapMgr@VCCell@SpeedTree@@@SpeedTree@@$00@SpeedTree@@QAE_NI@Z 1001df50 f i Culling.obj
 0001:0001d050       ??$st_delete_array@PAVCCore@SpeedTree@@@SpeedTree@@YAXAAPAPAVCCore@0@@Z 1001e050 f i Culling.obj
 0001:0001d100       ??$st_new_array@V?$CBasicFixedString@$0BAA@@SpeedTree@@@SpeedTree@@YAPAV?$CBasicFixedString@$0BAA@@0@IPBDW4EAllocationType@0@@Z 1001e100 f i Culling.obj
 0001:0001d280       ??$st_delete_array@V?$CBasicFixedString@$0BAA@@SpeedTree@@@SpeedTree@@YAXAAPAV?$CBasicFixedString@$0BAA@@0@@Z 1001e280 f i Culling.obj
 0001:0001d360       ??$st_new_array@PAX@SpeedTree@@YAPAPAXIPBDW4EAllocationType@0@@Z 1001e360 f i Culling.obj
 0001:0001d470       ??$st_delete_array@PAX@SpeedTree@@YAXAAPAPAX@Z 1001e470 f i Culling.obj
 0001:0001d520       ?Set@CView@SpeedTree@@QAE_NABVVec3@2@ABVMat4x4@2@1MM_N@Z 1001e520 f   Forest.obj
 0001:0001db70       ?ComputeCameraFacingMatrix@CView@SpeedTree@@AAEX_N@Z 1001eb70 f   Forest.obj
 0001:0001dd40       ?ComputeFrustumValues@CView@SpeedTree@@AAEXXZ 1001ed40 f   Forest.obj
 0001:0001ddc0       ?FrustumExtractPlanes@SpeedTree@@YAXABVMat4x4@1@QAVVec4@1@@Z 1001edc0 f i Forest.obj
 0001:0001dfa0       ?FrustumComputeAABB@SpeedTree@@YAXQBVVec3@1@AAVCExtents@1@@Z 1001efa0 f i Forest.obj
 0001:0001e030       ?FrustumComputePoints@SpeedTree@@YAXABVCView@1@QAVVec3@1@@Z 1001f030 f i Forest.obj
 0001:0001e170       ?Compute3PlaneIntersection@SpeedTree@@YA_NABVVec4@1@00AAVVec3@1@@Z 1001f170 f i Forest.obj
 0001:0001e300       ??0CForest@SpeedTree@@QAE@XZ 1001f300 f   Forest.obj
 0001:0001e3e0       ??1CForest@SpeedTree@@UAE@XZ 1001f3e0 f   Forest.obj
 0001:0001e400       ?CollisionAdjust@CForest@SpeedTree@@QBE_NAAVVec3@2@ABVCVisibleInstances@2@H@Z 1001f400 f   Forest.obj
 0001:0001ed20       ??_G?$CArray@USCollisionSort@@$00@SpeedTree@@UAEPAXI@Z 1001fd20 f i Forest.obj
 0001:0001ed70       ??_E?$CArray@USCollisionSort@@$00@SpeedTree@@UAEPAXI@Z 1001fd70 f i Forest.obj
 0001:0001ee00       ??0?$CStaticArray@USCollisionSort@@@SpeedTree@@QAE@ABV01@@Z 1001fe00 f i Forest.obj
 0001:0001ee70       ??4?$CStaticArray@USCollisionSort@@@SpeedTree@@QAEAAV01@ABV01@@Z 1001fe70 f i Forest.obj
 0001:0001eeb0       ??_G?$CStaticArray@USCollisionSort@@@SpeedTree@@UAEPAXI@Z 1001feb0 f i Forest.obj
 0001:0001eee0       ??_E?$CStaticArray@USCollisionSort@@@SpeedTree@@UAEPAXI@Z 1001fee0 f i Forest.obj
 0001:0001ef50       ?ComputeLightView@CForest@SpeedTree@@SA_NABVVec3@2@QBV32@MMAAVCView@2@M@Z 1001ff50 f   Forest.obj
 0001:0001fc40       ??0?$CStaticArray@USCollisionSort@@@SpeedTree@@QAE@IPBD_N@Z 10020c40 f i Forest.obj
 0001:0001fd50       ??1?$CStaticArray@USCollisionSort@@@SpeedTree@@UAE@XZ 10020d50 f i Forest.obj
 0001:0001fdf0       ?empty@?$CArray@US3dTreeInstanceLod@SpeedTree@@$00@SpeedTree@@QBE_NXZ 10020df0 f i Forest.obj
 0001:0001fe10       ?size@?$CArray@US3dTreeInstanceLod@SpeedTree@@$00@SpeedTree@@QBEIXZ 10020e10 f i Forest.obj
 0001:0001fe30       ??A?$CArray@US3dTreeInstanceLod@SpeedTree@@$00@SpeedTree@@QBEABUS3dTreeInstanceLod@1@I@Z 10020e30 f i Forest.obj
 0001:0001fe50       ??A?$CArray@USDetailedCullData@SpeedTree@@$00@SpeedTree@@QBEABUSDetailedCullData@1@I@Z 10020e50 f i Forest.obj
 0001:0001fe70       ??0?$CArray@USCollisionSort@@$00@SpeedTree@@QAE@ABV01@@Z 10020e70 f i Forest.obj
 0001:0001fec0       ??0?$CArray@USCollisionSort@@$00@SpeedTree@@QAE@XZ 10020ec0 f i Forest.obj
 0001:0001ff10       ??1?$CArray@USCollisionSort@@$00@SpeedTree@@UAE@XZ 10020f10 f i Forest.obj
 0001:0001ff50       ?size@?$CArray@USCollisionSort@@$00@SpeedTree@@QBEIXZ 10020f50 f i Forest.obj
 0001:0001ff70       ?resize@?$CArray@USCollisionSort@@$00@SpeedTree@@QAE_NI@Z 10020f70 f i Forest.obj
 0001:0001ffb0       ??4?$CArray@USCollisionSort@@$00@SpeedTree@@QAEAAV01@ABV01@@Z 10020fb0 f i Forest.obj
 0001:000200f0       ?begin@?$CArray@USCollisionSort@@$00@SpeedTree@@QAEPAUSCollisionSort@@XZ 100210f0 f i Forest.obj
 0001:00020110       ?end@?$CArray@USCollisionSort@@$00@SpeedTree@@QAEPAUSCollisionSort@@XZ 10021110 f i Forest.obj
 0001:00020130       ?insert_sorted@?$CArray@USCollisionSort@@$00@SpeedTree@@QAEPAUSCollisionSort@@ABU3@@Z 10021130 f i Forest.obj
 0001:00020160       ?SetExternalMemory@?$CArray@USCollisionSort@@$00@SpeedTree@@QAEXPAEI@Z 10021160 f i Forest.obj
 0001:00020220       ?clear@?$CArray@USCollisionSort@@$00@SpeedTree@@QAEXXZ 10021220 f i Forest.obj
 0001:000202b0       ?reserve@?$CArray@USCollisionSort@@$00@SpeedTree@@QAE_NI@Z 100212b0 f i Forest.obj
 0001:000203b0       ?insert@?$CArray@USCollisionSort@@$00@SpeedTree@@QAEPAUSCollisionSort@@PAU3@ABU3@@Z 100213b0 f i Forest.obj
 0001:00020490       ?higher@?$CArray@USCollisionSort@@$00@SpeedTree@@QAEPAUSCollisionSort@@ABU3@@Z 10021490 f i Forest.obj
 0001:00020550       ?Allocate@?$CArray@USCollisionSort@@$00@SpeedTree@@IAEPAUSCollisionSort@@I@Z 10021550 f i Forest.obj
 0001:000205d0       ?Deallocate@?$CArray@USCollisionSort@@$00@SpeedTree@@IAEXPAUSCollisionSort@@@Z 100215d0 f i Forest.obj
 0001:00020620       ?push_back@?$CArray@USCollisionSort@@$00@SpeedTree@@QAE_NABUSCollisionSort@@@Z 10021620 f i Forest.obj
 0001:00020700       ?lower@?$CArray@USCollisionSort@@$00@SpeedTree@@QAEPAUSCollisionSort@@ABU3@@Z 10021700 f i Forest.obj
 0001:000207f0       ??$st_new_array@USCollisionSort@@@SpeedTree@@YAPAUSCollisionSort@@IPBDW4EAllocationType@0@@Z 100217f0 f i Forest.obj
 0001:00020900       ??$st_delete_array@USCollisionSort@@@SpeedTree@@YAXAAPAUSCollisionSort@@@Z 10021900 f i Forest.obj
 0001:000209b0       ??0CTerrainCell@SpeedTree@@QAE@ABV01@@Z 100219b0 f i Terrain.obj
 0001:00020ab0       ??4CTerrainCell@SpeedTree@@QAEAAV01@ABV01@@Z 10021ab0 f i Terrain.obj
 0001:00020ba0       ??_GCTerrainCell@SpeedTree@@UAEPAXI@Z 10021ba0 f i Terrain.obj
 0001:00020bd0       ??_ECTerrainCell@SpeedTree@@UAEPAXI@Z 10021bd0 f i Terrain.obj
 0001:00020c40       ??_G?$CArray@PAVCTerrainCell@SpeedTree@@$00@SpeedTree@@UAEPAXI@Z 10021c40 f i Terrain.obj
 0001:00020c90       ??_E?$CArray@PAVCTerrainCell@SpeedTree@@$00@SpeedTree@@UAEPAXI@Z 10021c90 f i Terrain.obj
 0001:00020d20       ??0STerrainCullResults@SpeedTree@@QAE@XZ 10021d20 f i Terrain.obj
 0001:00020df0       ??1STerrainCullResults@SpeedTree@@QAE@XZ 10021df0 f i Terrain.obj
 0001:00020ed0       ??0STerrainCullResults@SpeedTree@@QAE@ABU01@@Z 10021ed0 f i Terrain.obj
 0001:00020ff0       ??4STerrainCullResults@SpeedTree@@QAEAAU01@ABU01@@Z 10021ff0 f i Terrain.obj
 0001:00021040       ??_F?$CMap@USRowCol@SpeedTree@@VCTerrainCell@2@V?$CLess@USRowCol@SpeedTree@@@2@$00@SpeedTree@@QAEXXZ 10022040 f i Terrain.obj
 0001:00021060       ??_G?$CMap@USRowCol@SpeedTree@@VCTerrainCell@2@V?$CLess@USRowCol@SpeedTree@@@2@$00@SpeedTree@@UAEPAXI@Z 10022060 f i Terrain.obj
 0001:000210f0       ??_E?$CMap@USRowCol@SpeedTree@@VCTerrainCell@2@V?$CLess@USRowCol@SpeedTree@@@2@$00@SpeedTree@@UAEPAXI@Z 100220f0 f i Terrain.obj
 0001:000211c0       ??0?$CCellContainer@VCTerrainCell@SpeedTree@@@SpeedTree@@QAE@ABV01@@Z 100221c0 f i Terrain.obj
 0001:00021200       ??4?$CCellContainer@VCTerrainCell@SpeedTree@@@SpeedTree@@QAEAAV01@ABV01@@Z 10022200 f i Terrain.obj
 0001:00021240       ??_G?$CCellContainer@VCTerrainCell@SpeedTree@@@SpeedTree@@UAEPAXI@Z 10022240 f i Terrain.obj
 0001:000212e0       ??_E?$CCellContainer@VCTerrainCell@SpeedTree@@@SpeedTree@@UAEPAXI@Z 100222e0 f i Terrain.obj
 0001:000213c0       ??_G?$CArray@G$00@SpeedTree@@UAEPAXI@Z 100223c0 f i Terrain.obj
 0001:00021410       ??_E?$CArray@G$00@SpeedTree@@UAEPAXI@Z 10022410 f i Terrain.obj
 0001:000214a0       ??_G?$CArray@USIndexData@CTerrain@SpeedTree@@$00@SpeedTree@@UAEPAXI@Z 100224a0 f i Terrain.obj
 0001:000214f0       ??_E?$CArray@USIndexData@CTerrain@SpeedTree@@$00@SpeedTree@@UAEPAXI@Z 100224f0 f i Terrain.obj
 0001:00021580       ??0CTerrain@SpeedTree@@QAE@ABV01@@Z 10022580 f i Terrain.obj
 0001:00021700       ??4CTerrain@SpeedTree@@QAEAAV01@ABV01@@Z 10022700 f i Terrain.obj
 0001:000217f0       ??_GCTerrain@SpeedTree@@UAEPAXI@Z 100227f0 f i Terrain.obj
 0001:00021820       ??_ECTerrain@SpeedTree@@UAEPAXI@Z 10022820 f i Terrain.obj
 0001:00021890       ??0CTerrainCell@SpeedTree@@QAE@XZ 10022890 f i Terrain.obj
 0001:00021950       ??1CTerrainCell@SpeedTree@@UAE@XZ 10022950 f i Terrain.obj
 0001:00021970       ?IsNew@CTerrainCell@SpeedTree@@QBE_NXZ 10022970 f i Terrain.obj
 0001:00021990       ?Col@CTerrainCell@SpeedTree@@QBEHXZ 10022990 f i Terrain.obj
 0001:000219b0       ?Row@CTerrainCell@SpeedTree@@QBEHXZ 100229b0 f i Terrain.obj
 0001:000219d0       ?SetRowCol@CTerrainCell@SpeedTree@@QAEXHH@Z 100229d0 f i Terrain.obj
 0001:000219f0       ?GetExtents@CTerrainCell@SpeedTree@@QBEABVCExtents@2@XZ 100229f0 f i Terrain.obj
 0001:00021a10       ?InvalidateExtents@CTerrainCell@SpeedTree@@QAEXXZ 10022a10 f i Terrain.obj
 0001:00021a80       ?SetExtents@CTerrainCell@SpeedTree@@QAEXABVCExtents@2@@Z 10022a80 f i Terrain.obj
 0001:00021b10       ?GetDistanceFromCamera@CTerrainCell@SpeedTree@@QBEMXZ 10022b10 f i Terrain.obj
 0001:00021b30       ?GetCenter@CTerrainCell@SpeedTree@@QBEABVVec3@2@XZ 10022b30 f i Terrain.obj
 0001:00021b50       ?GetCullingRadius@CTerrainCell@SpeedTree@@QBEMXZ 10022b50 f i Terrain.obj
 0001:00021b70       ?GetFrameIndex@CTerrainCell@SpeedTree@@QBEHXZ 10022b70 f i Terrain.obj
 0001:00021b90       ?SetFrameIndex@CTerrainCell@SpeedTree@@QAEXH@Z 10022b90 f i Terrain.obj
 0001:00021bb0       ?GetIndices@CTerrainCell@SpeedTree@@QBEXAAI000@Z 10022bb0 f i Terrain.obj
 0001:00021bf0       ?GetLod@CTerrainCell@SpeedTree@@QBEHXZ 10022bf0 f i Terrain.obj
 0001:00021c10       ?GetVbo@CTerrainCell@SpeedTree@@QBEPAXXZ 10022c10 f i Terrain.obj
 0001:00021c30       ?SetVbo@CTerrainCell@SpeedTree@@QAEXPAX@Z 10022c30 f i Terrain.obj
 0001:00021c50       ?SetIsPopulated@CTerrainCell@SpeedTree@@QAEX_N@Z 10022c50 f i Terrain.obj
 0001:00021c70       ?IsPopulated@CTerrainCell@SpeedTree@@QBE_NXZ 10022c70 f i Terrain.obj
 0001:00021c90       ?IsEnabled@CTerrain@SpeedTree@@QBE_NXZ 10022c90 f i Terrain.obj
 0001:00021cc0       ?GetNumLods@CTerrain@SpeedTree@@QBEHXZ 10022cc0 f i Terrain.obj
 0001:00021ce0       ?GetMaxTileRes@CTerrain@SpeedTree@@QBEHXZ 10022ce0 f i Terrain.obj
 0001:00021d00       ?GetCellSize@CTerrain@SpeedTree@@QBEMXZ 10022d00 f i Terrain.obj
 0001:00021d20       ?SetHeightHints@CTerrain@SpeedTree@@QAEXMM@Z 10022d20 f i Terrain.obj
 0001:00021d40       ?SetHeapReserves@CTerrain@SpeedTree@@QAEXABUSHeapReserves@2@@Z 10022d40 f i Terrain.obj
 0001:00021d80       ?SetLodRange@CTerrain@SpeedTree@@QAEXMM@Z 10022d80 f i Terrain.obj
 0001:00021da0       ?GetLodRange@CTerrain@SpeedTree@@QBEXAAM0@Z 10022da0 f i Terrain.obj
 0001:00021dd0       ?GetCompositeIndices@CTerrain@SpeedTree@@QBEABV?$CArray@G$00@2@XZ 10022dd0 f i Terrain.obj
 0001:00021df0       ??0CTerrain@SpeedTree@@QAE@XZ 10022df0 f   Terrain.obj
 0001:00021f60       ??1CTerrain@SpeedTree@@UAE@XZ 10022f60 f   Terrain.obj
 0001:00022070       ?SetHeapReserves@STerrainCullResults@SpeedTree@@QAE_NABUSHeapReserves@2@@Z 10023070 f   Terrain.obj
 0001:00022110       ?InitGeometry@CTerrain@SpeedTree@@UAE_NHHM@Z 10023110 f   Terrain.obj
 0001:000221e0       ?CullAndComputeLOD@CTerrain@SpeedTree@@UAEXABVCView@2@HAAUSTerrainCullResults@2@@Z 100231e0 f   Terrain.obj
 0001:00022f80       ??4?$CHeapAllocCheck@V?$CCellContainer@VCTerrainCell@SpeedTree@@@SpeedTree@@@SpeedTree@@QAEAAV01@ABV01@@Z 10023f80 f i Terrain.obj
 0001:00022f90       ??4iterator_base@?$CMap@USRowCol@SpeedTree@@VCTerrainCell@2@V?$CLess@USRowCol@SpeedTree@@@2@$00@SpeedTree@@QAEAAV012@ABV012@@Z 10023f90 f i Terrain.obj
 0001:00022fb0       ??_Fiterator_base@?$CMap@USRowCol@SpeedTree@@VCTerrainCell@2@V?$CLess@USRowCol@SpeedTree@@@2@$00@SpeedTree@@QAEXXZ 10023fb0 f i Terrain.obj
 0001:00022fd0       ??4iterator@?$CMap@USRowCol@SpeedTree@@VCTerrainCell@2@V?$CLess@USRowCol@SpeedTree@@@2@$00@SpeedTree@@QAEAAV012@ABV012@@Z 10023fd0 f i Terrain.obj
 0001:00022ff0       ??_Fiterator@?$CMap@USRowCol@SpeedTree@@VCTerrainCell@2@V?$CLess@USRowCol@SpeedTree@@@2@$00@SpeedTree@@QAEXXZ 10023ff0 f i Terrain.obj
 0001:00023010       ?FrameEnd@CTerrain@SpeedTree@@QAEXHAAUSTerrainCullResults@2@@Z 10024010 f   Terrain.obj
 0001:00023030       ?ComputeCellLods@CTerrain@SpeedTree@@IBEXABVCView@2@AAUSTerrainCullResults@2@@Z 10024030 f   Terrain.obj
 0001:00023450       ?RemoveInactiveCells@CTerrain@SpeedTree@@IAEXAAV?$CArray@PAX$00@2@H@Z 10024450 f   Terrain.obj
 0001:000235b0       ?InitLodIndexStrips@CTerrain@SpeedTree@@IAEXXZ 100245b0 f   Terrain.obj
 0001:00024a50       ??0?$CHeapAllocCheck@V?$CCellContainer@VCTerrainCell@SpeedTree@@@SpeedTree@@@SpeedTree@@QAE@ABV?$CCellContainer@VCTerrainCell@SpeedTree@@@1@W4ESdkLimit@1@PBDH@Z 10025a50 f i Terrain.obj
 0001:00024a60       ??0?$CArray@PAVCTerrainCell@SpeedTree@@$00@SpeedTree@@QAE@ABV01@@Z 10025a60 f i Terrain.obj
 0001:00024ab0       ??0?$CArray@PAVCTerrainCell@SpeedTree@@$00@SpeedTree@@QAE@XZ 10025ab0 f i Terrain.obj
 0001:00024b00       ??1?$CArray@PAVCTerrainCell@SpeedTree@@$00@SpeedTree@@UAE@XZ 10025b00 f i Terrain.obj
 0001:00024b40       ?size@?$CArray@PAVCTerrainCell@SpeedTree@@$00@SpeedTree@@QBEIXZ 10025b40 f i Terrain.obj
 0001:00024b60       ?resize@?$CArray@PAVCTerrainCell@SpeedTree@@$00@SpeedTree@@QAE_NI@Z 10025b60 f i Terrain.obj
 0001:00024ba0       ?reserve@?$CArray@PAVCTerrainCell@SpeedTree@@$00@SpeedTree@@QAE_NI@Z 10025ba0 f i Terrain.obj
 0001:00024ca0       ?push_back@?$CArray@PAVCTerrainCell@SpeedTree@@$00@SpeedTree@@QAE_NABQAVCTerrainCell@2@@Z 10025ca0 f i Terrain.obj
 0001:00024d60       ??A?$CArray@PAVCTerrainCell@SpeedTree@@$00@SpeedTree@@QAEAAPAVCTerrainCell@1@I@Z 10025d60 f i Terrain.obj
 0001:00024d80       ??4?$CArray@PAVCTerrainCell@SpeedTree@@$00@SpeedTree@@QAEAAV01@ABV01@@Z 10025d80 f i Terrain.obj
 0001:00024ec0       ?SetHeapDescription@?$CArray@PAVCTerrainCell@SpeedTree@@$00@SpeedTree@@QAEXPBD@Z 10025ec0 f i Terrain.obj
 0001:00024ee0       ??0?$CArray@PAX$00@SpeedTree@@QAE@ABV01@@Z 10025ee0 f i Terrain.obj
 0001:00024f30       ?resize@?$CArray@PAX$00@SpeedTree@@QAE_NI@Z 10025f30 f i Terrain.obj
 0001:00024f70       ??4?$CArray@PAX$00@SpeedTree@@QAEAAV01@ABV01@@Z 10025f70 f i Terrain.obj
 0001:000250b0       ?SetHeapDescription@?$CArray@PAX$00@SpeedTree@@QAEXPBD@Z 100260b0 f i Terrain.obj
 0001:000250d0       ??0?$CMap@USRowCol@SpeedTree@@VCTerrainCell@2@V?$CLess@USRowCol@SpeedTree@@@2@$00@SpeedTree@@QAE@ABV01@@Z 100260d0 f i Terrain.obj
 0001:000251c0       ??0?$CMap@USRowCol@SpeedTree@@VCTerrainCell@2@V?$CLess@USRowCol@SpeedTree@@@2@$00@SpeedTree@@QAE@I@Z 100261c0 f i Terrain.obj
 0001:00025240       ??1?$CMap@USRowCol@SpeedTree@@VCTerrainCell@2@V?$CLess@USRowCol@SpeedTree@@@2@$00@SpeedTree@@UAE@XZ 10026240 f i Terrain.obj
 0001:000252c0       ?clear@?$CMap@USRowCol@SpeedTree@@VCTerrainCell@2@V?$CLess@USRowCol@SpeedTree@@@2@$00@SpeedTree@@QAEXXZ 100262c0 f i Terrain.obj
 0001:00025330       ??4?$CMap@USRowCol@SpeedTree@@VCTerrainCell@2@V?$CLess@USRowCol@SpeedTree@@@2@$00@SpeedTree@@QAEAAV01@ABV01@@Z 10026330 f i Terrain.obj
 0001:00025c80       ?begin@?$CMap@USRowCol@SpeedTree@@VCTerrainCell@2@V?$CLess@USRowCol@SpeedTree@@@2@$00@SpeedTree@@QAE?AViterator@12@XZ 10026c80 f i Terrain.obj
 0001:00025d30       ?end@?$CMap@USRowCol@SpeedTree@@VCTerrainCell@2@V?$CLess@USRowCol@SpeedTree@@@2@$00@SpeedTree@@QAE?AViterator@12@XZ 10026d30 f i Terrain.obj
 0001:00025d60       ?erase@?$CMap@USRowCol@SpeedTree@@VCTerrainCell@2@V?$CLess@USRowCol@SpeedTree@@@2@$00@SpeedTree@@QAE?AViterator@12@V312@@Z 10026d60 f i Terrain.obj
 0001:00026e40       ?ResizePool@?$CMap@USRowCol@SpeedTree@@VCTerrainCell@2@V?$CLess@USRowCol@SpeedTree@@@2@$00@SpeedTree@@QAEXI@Z 10027e40 f i Terrain.obj
 0001:00026e60       ??0?$CCellContainer@VCTerrainCell@SpeedTree@@@SpeedTree@@QAE@XZ 10027e60 f i Terrain.obj
 0001:00026e90       ??1?$CCellContainer@VCTerrainCell@SpeedTree@@@SpeedTree@@UAE@XZ 10027e90 f i Terrain.obj
 0001:00026f10       ?GetCellPtrByRowCol_Add@?$CCellContainer@VCTerrainCell@SpeedTree@@@SpeedTree@@QAEPAVCTerrainCell@2@HH@Z 10027f10 f i Terrain.obj
 0001:00026f90       ?GetCellPtrByRowCol@?$CCellContainer@VCTerrainCell@SpeedTree@@@SpeedTree@@QBEPBVCTerrainCell@2@HH@Z 10027f90 f i Terrain.obj
 0001:00027010       ?GetCellSize@?$CCellContainer@VCTerrainCell@SpeedTree@@@SpeedTree@@QBEMXZ 10028010 f i Terrain.obj
 0001:00027030       ?SetCellSize@?$CCellContainer@VCTerrainCell@SpeedTree@@@SpeedTree@@QAEXM@Z 10028030 f i Terrain.obj
 0001:00027050       ??0?$CArray@G$00@SpeedTree@@QAE@ABV01@@Z 10028050 f i Terrain.obj
 0001:000270a0       ??0?$CArray@G$00@SpeedTree@@QAE@XZ 100280a0 f i Terrain.obj
 0001:000270f0       ??1?$CArray@G$00@SpeedTree@@UAE@XZ 100280f0 f i Terrain.obj
 0001:00027130       ?clear@?$CArray@G$00@SpeedTree@@QAEXXZ 10028130 f i Terrain.obj
 0001:000271c0       ?empty@?$CArray@G$00@SpeedTree@@QBE_NXZ 100281c0 f i Terrain.obj
 0001:000271e0       ?size@?$CArray@G$00@SpeedTree@@QBEIXZ 100281e0 f i Terrain.obj
 0001:00027200       ?reserve@?$CArray@G$00@SpeedTree@@QAE_NI@Z 10028200 f i Terrain.obj
 0001:00027300       ?push_back@?$CArray@G$00@SpeedTree@@QAE_NABG@Z 10028300 f i Terrain.obj
 0001:000273c0       ??A?$CArray@G$00@SpeedTree@@QAEAAGI@Z 100283c0 f i Terrain.obj
 0001:000273e0       ??4?$CArray@G$00@SpeedTree@@QAEAAV01@ABV01@@Z 100283e0 f i Terrain.obj
 0001:00027520       ?SetHeapDescription@?$CArray@G$00@SpeedTree@@QAEXPBD@Z 10028520 f i Terrain.obj
 0001:00027540       ??0?$CArray@USIndexData@CTerrain@SpeedTree@@$00@SpeedTree@@QAE@ABV01@@Z 10028540 f i Terrain.obj
 0001:00027590       ??0?$CArray@USIndexData@CTerrain@SpeedTree@@$00@SpeedTree@@QAE@XZ 10028590 f i Terrain.obj
 0001:000275e0       ??1?$CArray@USIndexData@CTerrain@SpeedTree@@$00@SpeedTree@@UAE@XZ 100285e0 f i Terrain.obj
 0001:00027620       ?clear@?$CArray@USIndexData@CTerrain@SpeedTree@@$00@SpeedTree@@QAEXXZ 10028620 f i Terrain.obj
 0001:000276b0       ?reserve@?$CArray@USIndexData@CTerrain@SpeedTree@@$00@SpeedTree@@QAE_NI@Z 100286b0 f i Terrain.obj
 0001:000277b0       ?push_back@?$CArray@USIndexData@CTerrain@SpeedTree@@$00@SpeedTree@@QAE_NABUSIndexData@CTerrain@2@@Z 100287b0 f i Terrain.obj
 0001:00027890       ??A?$CArray@USIndexData@CTerrain@SpeedTree@@$00@SpeedTree@@QBEABUSIndexData@CTerrain@1@I@Z 10028890 f i Terrain.obj
 0001:000278b0       ??4?$CArray@USIndexData@CTerrain@SpeedTree@@$00@SpeedTree@@QAEAAV01@ABV01@@Z 100288b0 f i Terrain.obj
 0001:000279f0       ?SetHeapDescription@?$CArray@USIndexData@CTerrain@SpeedTree@@$00@SpeedTree@@QAEXPBD@Z 100289f0 f i Terrain.obj
 0001:00027a10       ??9iterator_base@?$CMap@USRowCol@SpeedTree@@VCTerrainCell@2@V?$CLess@USRowCol@SpeedTree@@@2@$00@SpeedTree@@QBE_NABV012@@Z 10028a10 f i Terrain.obj
 0001:00027a30       ??Eiterator_base@?$CMap@USRowCol@SpeedTree@@VCTerrainCell@2@V?$CLess@USRowCol@SpeedTree@@@2@$00@SpeedTree@@QAEAAV012@XZ 10028a30 f i Terrain.obj
 0001:00027c10       ??0iterator_base@?$CMap@USRowCol@SpeedTree@@VCTerrainCell@2@V?$CLess@USRowCol@SpeedTree@@@2@$00@SpeedTree@@IAE@PAXPBV?$CBlockPool@$00@2@@Z 10028c10 f i Terrain.obj
 0001:00027c40       ??0iterator@?$CMap@USRowCol@SpeedTree@@VCTerrainCell@2@V?$CLess@USRowCol@SpeedTree@@@2@$00@SpeedTree@@QAE@ABV012@@Z 10028c40 f i Terrain.obj
 0001:00027c80       ??0iterator@?$CMap@USRowCol@SpeedTree@@VCTerrainCell@2@V?$CLess@USRowCol@SpeedTree@@@2@$00@SpeedTree@@QAE@PAXPBV?$CBlockPool@$00@2@@Z 10028c80 f i Terrain.obj
 0001:00027cb0       ??Citerator@?$CMap@USRowCol@SpeedTree@@VCTerrainCell@2@V?$CLess@USRowCol@SpeedTree@@@2@$00@SpeedTree@@QBEPAVCNode@12@XZ 10028cb0 f i Terrain.obj
 0001:00027d00       ??$sort@VCTerrainCellSorter@@@?$CArray@PAVCTerrainCell@SpeedTree@@$00@SpeedTree@@QAEXABVCTerrainCellSorter@@_N@Z 10028d00 f i Terrain.obj
 0001:00027dc0       ??4const_iterator@?$CMap@USRowCol@SpeedTree@@VCTerrainCell@2@V?$CLess@USRowCol@SpeedTree@@@2@$00@SpeedTree@@QAEAAV012@ABV012@@Z 10028dc0 f i Terrain.obj
 0001:00027de0       ??_Fconst_iterator@?$CMap@USRowCol@SpeedTree@@VCTerrainCell@2@V?$CLess@USRowCol@SpeedTree@@@2@$00@SpeedTree@@QAEXXZ 10028de0 f i Terrain.obj
 0001:00027e00       ?clear@?$CArray@PAVCTerrainCell@SpeedTree@@$00@SpeedTree@@QAEXXZ 10028e00 f i Terrain.obj
 0001:00027e90       ?SetExternalMemory@?$CArray@PAVCTerrainCell@SpeedTree@@$00@SpeedTree@@QAEXPAEI@Z 10028e90 f i Terrain.obj
 0001:00027f40       ?Allocate@?$CArray@PAVCTerrainCell@SpeedTree@@$00@SpeedTree@@IAEPAPAVCTerrainCell@2@I@Z 10028f40 f i Terrain.obj
 0001:00027fc0       ?Deallocate@?$CArray@PAVCTerrainCell@SpeedTree@@$00@SpeedTree@@IAEXPAPAVCTerrainCell@2@@Z 10028fc0 f i Terrain.obj
 0001:00028010       ?end@?$CMap@USRowCol@SpeedTree@@VCTerrainCell@2@V?$CLess@USRowCol@SpeedTree@@@2@$00@SpeedTree@@QBE?AVconst_iterator@12@XZ 10029010 f i Terrain.obj
 0001:00028040       ?Rebalance@?$CMap@USRowCol@SpeedTree@@VCTerrainCell@2@V?$CLess@USRowCol@SpeedTree@@@2@$00@SpeedTree@@IAEXPAX@Z 10029040 f i Terrain.obj
 0001:00028c60       ?Allocate@?$CMap@USRowCol@SpeedTree@@VCTerrainCell@2@V?$CLess@USRowCol@SpeedTree@@@2@$00@SpeedTree@@IAEPAXABUSRowCol@2@PAX@Z 10029c60 f i Terrain.obj
 0001:00028d40       ?Deallocate@?$CMap@USRowCol@SpeedTree@@VCTerrainCell@2@V?$CLess@USRowCol@SpeedTree@@@2@$00@SpeedTree@@IAEXAAPAX@Z 10029d40 f i Terrain.obj
 0001:00028dd0       ?Ptr@?$CMap@USRowCol@SpeedTree@@VCTerrainCell@2@V?$CLess@USRowCol@SpeedTree@@@2@$00@SpeedTree@@IBEPAVCNode@12@PAX@Z 10029dd0 f i Terrain.obj
 0001:00028e00       ?GetCellItrByRowCol_Add@?$CCellContainer@VCTerrainCell@SpeedTree@@@SpeedTree@@QAE?AViterator@?$CMap@USRowCol@SpeedTree@@VCTerrainCell@2@V?$CLess@USRowCol@SpeedTree@@@2@$00@2@HH@Z 10029e00 f i Terrain.obj
 0001:00028ed0       ?GetCellItrByRowCol@?$CCellContainer@VCTerrainCell@SpeedTree@@@SpeedTree@@QBE?AVconst_iterator@?$CMap@USRowCol@SpeedTree@@VCTerrainCell@2@V?$CLess@USRowCol@SpeedTree@@@2@$00@2@HH@Z 10029ed0 f i Terrain.obj
 0001:00028f40       ??0const_iterator@?$CMap@USRowCol@SpeedTree@@VCTerrainCell@2@V?$CLess@USRowCol@SpeedTree@@@2@$00@SpeedTree@@QAE@PAXPBV?$CBlockPool@$00@2@@Z 10029f40 f i Terrain.obj
 0001:00028f70       ??Cconst_iterator@?$CMap@USRowCol@SpeedTree@@VCTerrainCell@2@V?$CLess@USRowCol@SpeedTree@@@2@$00@SpeedTree@@QBEPBVCNode@12@XZ 10029f70 f i Terrain.obj
 0001:00028fc0       ?SetExternalMemory@?$CArray@G$00@SpeedTree@@QAEXPAEI@Z 10029fc0 f i Terrain.obj
 0001:00029070       ?Allocate@?$CArray@G$00@SpeedTree@@IAEPAGI@Z 1002a070 f i Terrain.obj
 0001:000290f0       ?Deallocate@?$CArray@G$00@SpeedTree@@IAEXPAG@Z 1002a0f0 f i Terrain.obj
 0001:00029140       ?SetExternalMemory@?$CArray@USIndexData@CTerrain@SpeedTree@@$00@SpeedTree@@QAEXPAEI@Z 1002a140 f i Terrain.obj
 0001:00029200       ?Allocate@?$CArray@USIndexData@CTerrain@SpeedTree@@$00@SpeedTree@@IAEPAUSIndexData@CTerrain@2@I@Z 1002a200 f i Terrain.obj
 0001:00029280       ?Deallocate@?$CArray@USIndexData@CTerrain@SpeedTree@@$00@SpeedTree@@IAEXPAUSIndexData@CTerrain@2@@Z 1002a280 f i Terrain.obj
 0001:000292d0       ??$ArrayQuickSort@PAVCTerrainCell@SpeedTree@@VCTerrainCellSorter@@VCArrayPointerMemorySwap@2@VCArrayPointerMemoryCopy@2@@SpeedTree@@YAXPAPAVCTerrainCell@0@0ABVCTerrainCellSorter@@ABVCArrayPointerMemorySwap@0@ABVCArrayPointerMemoryCopy@0@0@Z 1002a2d0 f i Terrain.obj
 0001:000296f0       ??$ArrayQuickSort@PAVCTerrainCell@SpeedTree@@VCTerrainCellSorter@@VCArrayPointerSwap@2@VCArrayPointerCopy@2@@SpeedTree@@YAXPAPAVCTerrainCell@0@0ABVCTerrainCellSorter@@ABVCArrayPointerSwap@0@ABVCArrayPointerCopy@0@0@Z 1002a6f0 f i Terrain.obj
 0001:00029a50       ?DeleteChildren@CNode@?$CMap@USRowCol@SpeedTree@@VCTerrainCell@2@V?$CLess@USRowCol@SpeedTree@@@2@$00@SpeedTree@@AAEXPAV23@@Z 1002aa50 f i Terrain.obj
 0001:00029b00       ??8iterator_base@?$CMap@USRowCol@SpeedTree@@VCTerrainCell@2@V?$CLess@USRowCol@SpeedTree@@@2@$00@SpeedTree@@QBE_NABV012@@Z 1002ab00 f i Terrain.obj
 0001:00029b20       ?Ptr@iterator_base@?$CMap@USRowCol@SpeedTree@@VCTerrainCell@2@V?$CLess@USRowCol@SpeedTree@@@2@$00@SpeedTree@@IBEPAVCNode@23@XZ 1002ab20 f i Terrain.obj
 0001:00029b70       ??$st_new_array@PAVCTerrainCell@SpeedTree@@@SpeedTree@@YAPAPAVCTerrainCell@0@IPBDW4EAllocationType@0@@Z 1002ab70 f i Terrain.obj
 0001:00029c80       ??$st_delete_array@PAVCTerrainCell@SpeedTree@@@SpeedTree@@YAXAAPAPAVCTerrainCell@0@@Z 1002ac80 f i Terrain.obj
 0001:00029d30       ??A?$CMap@USRowCol@SpeedTree@@VCTerrainCell@2@V?$CLess@USRowCol@SpeedTree@@@2@$00@SpeedTree@@QAEAAVCTerrainCell@1@ABUSRowCol@1@@Z 1002ad30 f i Terrain.obj
 0001:0002a020       ?find@?$CMap@USRowCol@SpeedTree@@VCTerrainCell@2@V?$CLess@USRowCol@SpeedTree@@@2@$00@SpeedTree@@QBE?AViterator@12@ABUSRowCol@2@@Z 1002b020 f i Terrain.obj
 0001:0002a170       ??$st_new_array@G@SpeedTree@@YAPAGIPBDW4EAllocationType@0@@Z 1002b170 f i Terrain.obj
 0001:0002a280       ??$st_delete_array@G@SpeedTree@@YAXAAPAG@Z 1002b280 f i Terrain.obj
 0001:0002a330       ??$st_new_array@USIndexData@CTerrain@SpeedTree@@@SpeedTree@@YAPAUSIndexData@CTerrain@0@IPBDW4EAllocationType@0@@Z 1002b330 f i Terrain.obj
 0001:0002a440       ??$st_delete_array@USIndexData@CTerrain@SpeedTree@@@SpeedTree@@YAXAAPAUSIndexData@CTerrain@0@@Z 1002b440 f i Terrain.obj
 0001:0002a4f0       ??0const_iterator@?$CMap@USRowCol@SpeedTree@@VCTerrainCell@2@V?$CLess@USRowCol@SpeedTree@@@2@$00@SpeedTree@@QAE@ABV012@@Z 1002b4f0 f i Terrain.obj
 0001:0002a530       ??0const_iterator@?$CMap@USRowCol@SpeedTree@@VCTerrainCell@2@V?$CLess@USRowCol@SpeedTree@@@2@$00@SpeedTree@@QAE@ABViterator@12@@Z 1002b530 f i Terrain.obj
 0001:0002a564       ?IsYAxisUp@CCoordSys@SpeedTree@@SA_NXZ 1002b564 f   SpeedTreeCore_Windows_v7.1_VS2008_MTDLL:SpeedTreeCore_Windows_v7.1.dll
 0001:0002a56a       ?IsLeftHanded@CCoordSys@SpeedTree@@SA_NXZ 1002b56a f   SpeedTreeCore_Windows_v7.1_VS2008_MTDLL:SpeedTreeCore_Windows_v7.1.dll
 0001:0002a570       ?ConvertToStd@CCoordSys@SpeedTree@@SA?AVVec3@2@QBM@Z 1002b570 f   SpeedTreeCore_Windows_v7.1_VS2008_MTDLL:SpeedTreeCore_Windows_v7.1.dll
 0001:0002a576       ?RotateUpAxis@CCoordSys@SpeedTree@@SAXAAVMat3x3@2@M@Z 1002b576 f   SpeedTreeCore_Windows_v7.1_VS2008_MTDLL:SpeedTreeCore_Windows_v7.1.dll
 0001:0002a57c       ?UpComponent@CCoordSys@SpeedTree@@SAMQBM@Z 1002b57c f   SpeedTreeCore_Windows_v7.1_VS2008_MTDLL:SpeedTreeCore_Windows_v7.1.dll
 0001:0002a582       ??0SResourceStats@CCore@SpeedTree@@QAE@XZ 1002b582 f   SpeedTreeCore_Windows_v7.1_VS2008_MTDLL:SpeedTreeCore_Windows_v7.1.dll
 0001:0002a588       ?SetError@CCore@SpeedTree@@SAXPBDZZ 1002b588 f   SpeedTreeCore_Windows_v7.1_VS2008_MTDLL:SpeedTreeCore_Windows_v7.1.dll
 0001:0002a58e       ?Advance@CWind@SpeedTree@@QAEX_NM@Z 1002b58e f   SpeedTreeCore_Windows_v7.1_VS2008_MTDLL:SpeedTreeCore_Windows_v7.1.dll
 0001:0002a594       ?SetStrength@CWind@SpeedTree@@QAEXM@Z 1002b594 f   SpeedTreeCore_Windows_v7.1_VS2008_MTDLL:SpeedTreeCore_Windows_v7.1.dll
 0001:0002a59a       ?SetInitDirection@CWind@SpeedTree@@QAEXABVVec3@2@@Z 1002b59a f   SpeedTreeCore_Windows_v7.1_VS2008_MTDLL:SpeedTreeCore_Windows_v7.1.dll
 0001:0002a5a0       ?SetDirection@CWind@SpeedTree@@QAEXABVVec3@2@@Z 1002b5a0 f   SpeedTreeCore_Windows_v7.1_VS2008_MTDLL:SpeedTreeCore_Windows_v7.1.dll
 0001:0002a5a6       ?ConvertFromStd@CCoordSys@SpeedTree@@SA?AVVec3@2@MMM@Z 1002b5a6 f   SpeedTreeCore_Windows_v7.1_VS2008_MTDLL:SpeedTreeCore_Windows_v7.1.dll
 0001:0002a5ac       ?CurrentUse@CHeapSystem@SpeedTree@@SAAAIXZ 1002b5ac f   SpeedTreeCore_Windows_v7.1_VS2008_MTDLL:SpeedTreeCore_Windows_v7.1.dll
 0001:0002a5b2       ?Allocator@CHeapSystem@SpeedTree@@SAAAPAVCAllocator@2@XZ 1002b5b2 f   SpeedTreeCore_Windows_v7.1_VS2008_MTDLL:SpeedTreeCore_Windows_v7.1.dll
 0001:0002a5b8       ?NumAllocs@CHeapSystem@SpeedTree@@SAAAIXZ 1002b5b8 f   SpeedTreeCore_Windows_v7.1_VS2008_MTDLL:SpeedTreeCore_Windows_v7.1.dll
 0001:0002a5be       ?PeakUse@CHeapSystem@SpeedTree@@SAAAIXZ 1002b5be f   SpeedTreeCore_Windows_v7.1_VS2008_MTDLL:SpeedTreeCore_Windows_v7.1.dll
 0001:0002a5c4       ?RightComponent@CCoordSys@SpeedTree@@SAMQBM@Z 1002b5c4 f   SpeedTreeCore_Windows_v7.1_VS2008_MTDLL:SpeedTreeCore_Windows_v7.1.dll
 0001:0002a5ca       ?OutComponent@CCoordSys@SpeedTree@@SAMQBM@Z 1002b5ca f   SpeedTreeCore_Windows_v7.1_VS2008_MTDLL:SpeedTreeCore_Windows_v7.1.dll
 0001:0002a5d0       ?RotateUpAxis@CCoordSys@SpeedTree@@SAXAAVMat4x4@2@M@Z 1002b5d0 f   SpeedTreeCore_Windows_v7.1_VS2008_MTDLL:SpeedTreeCore_Windows_v7.1.dll
 0001:0002a5d6       ?RotateOutAxis@CCoordSys@SpeedTree@@SAXAAVMat4x4@2@M@Z 1002b5d6 f   SpeedTreeCore_Windows_v7.1_VS2008_MTDLL:SpeedTreeCore_Windows_v7.1.dll
 0001:0002a5dc       ?UpAxis@CCoordSys@SpeedTree@@SAABVVec3@2@XZ 1002b5dc f   SpeedTreeCore_Windows_v7.1_VS2008_MTDLL:SpeedTreeCore_Windows_v7.1.dll
 0001:0002a5e2       ?TmpHeapBlockLock@CCore@SpeedTree@@SAPAEIPBDAAH@Z 1002b5e2 f   SpeedTreeCore_Windows_v7.1_VS2008_MTDLL:SpeedTreeCore_Windows_v7.1.dll
 0001:0002a5e8       ?TmpHeapBlockUnlock@CCore@SpeedTree@@SA_NH@Z 1002b5e8 f   SpeedTreeCore_Windows_v7.1_VS2008_MTDLL:SpeedTreeCore_Windows_v7.1.dll
 0001:0002a5ee       ?IsAuthorized@CCore@SpeedTree@@SA_NXZ 1002b5ee f   SpeedTreeCore_Windows_v7.1_VS2008_MTDLL:SpeedTreeCore_Windows_v7.1.dll
 0001:0002a5f4       ?RightAxis@CCoordSys@SpeedTree@@SAABVVec3@2@XZ 1002b5f4 f   SpeedTreeCore_Windows_v7.1_VS2008_MTDLL:SpeedTreeCore_Windows_v7.1.dll
 0001:0002a5fa       ?OutAxis@CCoordSys@SpeedTree@@SAABVVec3@2@XZ 1002b5fa f   SpeedTreeCore_Windows_v7.1_VS2008_MTDLL:SpeedTreeCore_Windows_v7.1.dll
 0001:0002a600       _QueryPerformanceCounter@4 1002b600 f   kernel32:KERNEL32.dll
 0001:0002a606       _QueryPerformanceFrequency@4 1002b606 f   kernel32:KERNEL32.dll
 0001:0002a60c       ??_U@YAPAXI@Z              1002b60c f   msvcprt:newaop_s.obj
 0001:0002a620       _sqrt                      1002b620 f   MSVCRT:MSVCR90.dll
 0001:0002a626       _memset                    1002b626 f   MSVCRT:MSVCR90.dll
 0001:0002a62c       _memcpy                    1002b62c f   MSVCRT:MSVCR90.dll
 0001:0002a632       _memcmp                    1002b632 f   MSVCRT:MSVCR90.dll
 0001:0002a638       _sin                       1002b638 f   MSVCRT:MSVCR90.dll
 0001:0002a63e       _cos                       1002b63e f   MSVCRT:MSVCR90.dll
 0001:0002a644       _fabs                      1002b644 f   MSVCRT:MSVCR90.dll
 0001:0002a64a       _tan                       1002b64a f   MSVCRT:MSVCR90.dll
 0001:0002a650       __purecall                 1002b650 f   MSVCRT:MSVCR90.dll
 0001:0002a656       ??3@YAXPAX@Z               1002b656 f   MSVCRT:MSVCR90.dll
 0001:0002a66e       ?__ArrayUnwind@@YGXPAXIHP6EX0@Z@Z 1002b66e f   MSVCRT:ehvecdtr.obj
 0001:0002a6cc       ??_M@YGXPAXIHP6EX0@Z@Z     1002b6cc f   MSVCRT:ehvecdtr.obj
 0001:0002a730       ??_V@YAXPAX@Z              1002b730 f   MSVCRT:MSVCR90.dll
 0001:0002a740       __ftol2_sse                1002b740 f   MSVCRT:ftol2.obj
 0001:0002a749       __ftol2_pentium4           1002b749 f   MSVCRT:ftol2.obj
 0001:0002a75c       __ftol2_sse_excpt          1002b75c f   MSVCRT:ftol2.obj
 0001:0002a776       __ftol2                    1002b776 f   MSVCRT:ftol2.obj
 0001:0002a7eb       ??_L@YGXPAXIHP6EX0@Z1@Z    1002b7eb f   MSVCRT:ehvecctr.obj
 0001:0002a850       ___CxxFrameHandler3        1002b850 f   MSVCRT:MSVCR90.dll
 0001:0002a856       @__security_check_cookie@4 1002b856 f   MSVCRT:secchk.obj
 0001:0002a866       _strcmp                    1002b866 f   MSVCRT:MSVCR90.dll
 0001:0002a86c       _strlen                    1002b86c f   MSVCRT:MSVCR90.dll
 0001:0002a872       _memmove                   1002b872 f   MSVCRT:MSVCR90.dll
 0001:0002a878       _free                      1002b878 f   MSVCRT:MSVCR90.dll
 0001:0002a87e       _malloc                    1002b87e f   MSVCRT:MSVCR90.dll
 0001:0002a884       _asin                      1002b884 f   MSVCRT:MSVCR90.dll
 0001:0002a88a       _atan2                     1002b88a f   MSVCRT:MSVCR90.dll
 0001:0002a890       _NtCurrentTeb              1002b890 f i MSVCRT:crtdll.obj
 0001:0002a8e6       __CRT_INIT@12              1002b8e6 f   MSVCRT:crtdll.obj
 0001:0002ac22       __DllMainCRTStartup@12     1002bc22 f   MSVCRT:crtdll.obj
 0001:0002ac46       ??2@YAPAXI@Z               1002bc46 f   MSVCRT:MSVCR90.dll
 0001:0002ac4c       ?terminate@@YAXXZ          1002bc4c f   MSVCRT:MSVCR90.dll
 0001:0002ac54       __SEH_prolog4              1002bc54 f   MSVCRT:sehprolg4.obj
 0001:0002ac99       __SEH_epilog4              1002bc99 f   MSVCRT:sehprolg4.obj
 0001:0002acad       __except_handler4          1002bcad f   MSVCRT:chandler4gs.obj
 0001:0002ad22       __get_sse2_info            1002bd22 f   MSVCRT:cpu_disp.obj
 0001:0002ad84       ___sse2_available_init     1002bd84 f   MSVCRT:cpu_disp.obj
 0001:0002ad91       ___report_gsfailure        1002bd91 f   MSVCRT:gs_report.obj
 0001:0002ae98       __vsnprintf_s              1002be98 f   MSVCRT:MSVCR90.dll
 0001:0002ae9e       ___clean_type_info_names   1002be9e f   MSVCRT:tncleanup.obj
 0001:0002aeaa       __onexit                   1002beaa f   MSVCRT:atonexit.obj
 0001:0002af4f       _atexit                    1002bf4f f   MSVCRT:atonexit.obj
 0001:0002af66       __RTC_Initialize           1002bf66 f   MSVCRT:_initsect_.obj
 0001:0002af8c       __RTC_Terminate            1002bf8c f   MSVCRT:_initsect_.obj
 0001:0002afb2       __encode_pointer           1002bfb2 f   MSVCRT:MSVCR90.dll
 0001:0002afb8       __malloc_crt               1002bfb8 f   MSVCRT:MSVCR90.dll
 0001:0002afbe       __encoded_null             1002bfbe f   MSVCRT:MSVCR90.dll
 0001:0002afc4       __decode_pointer           1002bfc4 f   MSVCRT:MSVCR90.dll
 0001:0002afd0       __ValidateImageBase        1002bfd0 f   MSVCRT:pesect.obj
 0001:0002b010       __FindPESection            1002c010 f   MSVCRT:pesect.obj
 0001:0002b060       __IsNonwritableInCurrentImage 1002c060 f   MSVCRT:pesect.obj
 0001:0002b11e       __initterm                 1002c11e f   MSVCRT:MSVCR90.dll
 0001:0002b124       __initterm_e               1002c124 f   MSVCRT:MSVCR90.dll
 0001:0002b12a       __amsg_exit                1002c12a f   MSVCRT:MSVCR90.dll
 0001:0002b130       ___CppXcptFilter           1002c130 f   MSVCRT:MSVCR90.dll
 0001:0002b136       _DllMain@12                1002c136 f   MSVCRT:dllmain.obj
 0001:0002b15a       ___security_init_cookie    1002c15a f   MSVCRT:gs_support.obj
 0001:0002b1f0       __except_handler4_common   1002c1f0 f   MSVCRT:MSVCR90.dll
 0001:0002b1f6       __crt_debugger_hook        1002c1f6 f   MSVCRT:MSVCR90.dll
 0001:0002b1fc       ___clean_type_info_names_internal 1002c1fc f   MSVCRT:MSVCR90.dll
 0001:0002b202       __unlock                   1002c202 f   MSVCRT:MSVCR90.dll
 0001:0002b208       ___dllonexit               1002c208 f   MSVCRT:MSVCR90.dll
 0001:0002b20e       __lock                     1002c20e f   MSVCRT:MSVCR90.dll
 0001:0002b214       _InterlockedExchange@8     1002c214 f   kernel32:KERNEL32.dll
 0001:0002b21a       _Sleep@4                   1002c21a f   kernel32:KERNEL32.dll
 0001:0002b220       _InterlockedCompareExchange@12 1002c220 f   kernel32:KERNEL32.dll
 0001:0002b226       _TerminateProcess@8        1002c226 f   kernel32:KERNEL32.dll
 0001:0002b22c       _GetCurrentProcess@0       1002c22c f   kernel32:KERNEL32.dll
 0001:0002b232       _UnhandledExceptionFilter@4 1002c232 f   kernel32:KERNEL32.dll
 0001:0002b238       _SetUnhandledExceptionFilter@4 1002c238 f   kernel32:KERNEL32.dll
 0001:0002b23e       _IsDebuggerPresent@0       1002c23e f   kernel32:KERNEL32.dll
 0001:0002b244       _DisableThreadLibraryCalls@4 1002c244 f   kernel32:KERNEL32.dll
 0001:0002b24a       _GetTickCount@0            1002c24a f   kernel32:KERNEL32.dll
 0001:0002b250       _GetCurrentThreadId@0      1002c250 f   kernel32:KERNEL32.dll
 0001:0002b256       _GetCurrentProcessId@0     1002c256 f   kernel32:KERNEL32.dll
 0001:0002b25c       _GetSystemTimeAsFileTime@4 1002c25c f   kernel32:KERNEL32.dll
 0002:00000000       __imp__GetSystemTimeAsFileTime@4 1002e000     kernel32:KERNEL32.dll
 0002:00000004       __imp__GetCurrentProcessId@0 1002e004     kernel32:KERNEL32.dll
 0002:00000008       __imp__GetCurrentThreadId@0 1002e008     kernel32:KERNEL32.dll
 0002:0000000c       __imp__GetTickCount@0      1002e00c     kernel32:KERNEL32.dll
 0002:00000010       __imp__DisableThreadLibraryCalls@4 1002e010     kernel32:KERNEL32.dll
 0002:00000014       __imp__IsDebuggerPresent@0 1002e014     kernel32:KERNEL32.dll
 0002:00000018       __imp__SetUnhandledExceptionFilter@4 1002e018     kernel32:KERNEL32.dll
 0002:0000001c       __imp__UnhandledExceptionFilter@4 1002e01c     kernel32:KERNEL32.dll
 0002:00000020       __imp__GetCurrentProcess@0 1002e020     kernel32:KERNEL32.dll
 0002:00000024       __imp__TerminateProcess@8  1002e024     kernel32:KERNEL32.dll
 0002:00000028       __imp__InterlockedCompareExchange@12 1002e028     kernel32:KERNEL32.dll
 0002:0000002c       __imp__Sleep@4             1002e02c     kernel32:KERNEL32.dll
 0002:00000030       __imp__InterlockedExchange@8 1002e030     kernel32:KERNEL32.dll
 0002:00000034       __imp__QueryPerformanceFrequency@4 1002e034     kernel32:KERNEL32.dll
 0002:00000038       __imp__QueryPerformanceCounter@4 1002e038     kernel32:KERNEL32.dll
 0002:0000003c       \177KERNEL32_NULL_THUNK_DATA 1002e03c     kernel32:KERNEL32.dll
 0002:00000040       __imp___unlock             1002e040     MSVCRT:MSVCR90.dll
 0002:00000044       __imp____clean_type_info_names_internal 1002e044     MSVCRT:MSVCR90.dll
 0002:00000048       __imp___crt_debugger_hook  1002e048     MSVCRT:MSVCR90.dll
 0002:0000004c       __imp___except_handler4_common 1002e04c     MSVCRT:MSVCR90.dll
 0002:00000050       __imp____CppXcptFilter     1002e050     MSVCRT:MSVCR90.dll
 0002:00000054       __imp___adjust_fdiv        1002e054     MSVCRT:MSVCR90.dll
 0002:00000058       __imp___amsg_exit          1002e058     MSVCRT:MSVCR90.dll
 0002:0000005c       __imp___initterm_e         1002e05c     MSVCRT:MSVCR90.dll
 0002:00000060       __imp___initterm           1002e060     MSVCRT:MSVCR90.dll
 0002:00000064       __imp___decode_pointer     1002e064     MSVCRT:MSVCR90.dll
 0002:00000068       __imp___lock               1002e068     MSVCRT:MSVCR90.dll
 0002:0000006c       __imp___onexit             1002e06c     MSVCRT:MSVCR90.dll
 0002:00000070       __imp____dllonexit         1002e070     MSVCRT:MSVCR90.dll
 0002:00000074       __imp__sqrt                1002e074     MSVCRT:MSVCR90.dll
 0002:00000078       __imp__memset              1002e078     MSVCRT:MSVCR90.dll
 0002:0000007c       __imp__memcpy              1002e07c     MSVCRT:MSVCR90.dll
 0002:00000080       __imp__memcmp              1002e080     MSVCRT:MSVCR90.dll
 0002:00000084       __imp__sin                 1002e084     MSVCRT:MSVCR90.dll
 0002:00000088       __imp__cos                 1002e088     MSVCRT:MSVCR90.dll
 0002:0000008c       __imp__fabs                1002e08c     MSVCRT:MSVCR90.dll
 0002:00000090       __imp__tan                 1002e090     MSVCRT:MSVCR90.dll
 0002:00000094       __imp___purecall           1002e094     MSVCRT:MSVCR90.dll
 0002:00000098       __imp_??3@YAXPAX@Z         1002e098     MSVCRT:MSVCR90.dll
 0002:0000009c       __imp_??_V@YAXPAX@Z        1002e09c     MSVCRT:MSVCR90.dll
 0002:000000a0       __imp____CxxFrameHandler3  1002e0a0     MSVCRT:MSVCR90.dll
 0002:000000a4       __imp__strcmp              1002e0a4     MSVCRT:MSVCR90.dll
 0002:000000a8       __imp__strlen              1002e0a8     MSVCRT:MSVCR90.dll
 0002:000000ac       __imp__memmove             1002e0ac     MSVCRT:MSVCR90.dll
 0002:000000b0       __imp__free                1002e0b0     MSVCRT:MSVCR90.dll
 0002:000000b4       __imp__malloc              1002e0b4     MSVCRT:MSVCR90.dll
 0002:000000b8       __imp__asin                1002e0b8     MSVCRT:MSVCR90.dll
 0002:000000bc       __imp__atan2               1002e0bc     MSVCRT:MSVCR90.dll
 0002:000000c0       __imp_??2@YAPAXI@Z         1002e0c0     MSVCRT:MSVCR90.dll
 0002:000000c4       __imp_?terminate@@YAXXZ    1002e0c4     MSVCRT:MSVCR90.dll
 0002:000000c8       __imp__vsnprintf_s         1002e0c8     MSVCRT:MSVCR90.dll
 0002:000000c8       __imp___vsnprintf_s        1002e0c8     MSVCRT:MSVCR90.dll
 0002:000000cc       __imp___encode_pointer     1002e0cc     MSVCRT:MSVCR90.dll
 0002:000000d0       __imp___malloc_crt         1002e0d0     MSVCRT:MSVCR90.dll
 0002:000000d4       __imp___encoded_null       1002e0d4     MSVCRT:MSVCR90.dll
 0002:000000d8       \177MSVCR90_NULL_THUNK_DATA 1002e0d8     MSVCRT:MSVCR90.dll
 0002:000000dc       __imp_?OutAxis@CCoordSys@SpeedTree@@SAABVVec3@2@XZ 1002e0dc     SpeedTreeCore_Windows_v7.1_VS2008_MTDLL:SpeedTreeCore_Windows_v7.1.dll
 0002:000000e0       __imp_?RightAxis@CCoordSys@SpeedTree@@SAABVVec3@2@XZ 1002e0e0     SpeedTreeCore_Windows_v7.1_VS2008_MTDLL:SpeedTreeCore_Windows_v7.1.dll
 0002:000000e4       __imp_?IsAuthorized@CCore@SpeedTree@@SA_NXZ 1002e0e4     SpeedTreeCore_Windows_v7.1_VS2008_MTDLL:SpeedTreeCore_Windows_v7.1.dll
 0002:000000e8       __imp_?TmpHeapBlockUnlock@CCore@SpeedTree@@SA_NH@Z 1002e0e8     SpeedTreeCore_Windows_v7.1_VS2008_MTDLL:SpeedTreeCore_Windows_v7.1.dll
 0002:000000ec       __imp_?TmpHeapBlockLock@CCore@SpeedTree@@SAPAEIPBDAAH@Z 1002e0ec     SpeedTreeCore_Windows_v7.1_VS2008_MTDLL:SpeedTreeCore_Windows_v7.1.dll
 0002:000000f0       __imp_?UpAxis@CCoordSys@SpeedTree@@SAABVVec3@2@XZ 1002e0f0     SpeedTreeCore_Windows_v7.1_VS2008_MTDLL:SpeedTreeCore_Windows_v7.1.dll
 0002:000000f4       __imp_?RotateOutAxis@CCoordSys@SpeedTree@@SAXAAVMat4x4@2@M@Z 1002e0f4     SpeedTreeCore_Windows_v7.1_VS2008_MTDLL:SpeedTreeCore_Windows_v7.1.dll
 0002:000000f8       __imp_?RotateUpAxis@CCoordSys@SpeedTree@@SAXAAVMat4x4@2@M@Z 1002e0f8     SpeedTreeCore_Windows_v7.1_VS2008_MTDLL:SpeedTreeCore_Windows_v7.1.dll
 0002:000000fc       __imp_?OutComponent@CCoordSys@SpeedTree@@SAMQBM@Z 1002e0fc     SpeedTreeCore_Windows_v7.1_VS2008_MTDLL:SpeedTreeCore_Windows_v7.1.dll
 0002:00000100       __imp_?RightComponent@CCoordSys@SpeedTree@@SAMQBM@Z 1002e100     SpeedTreeCore_Windows_v7.1_VS2008_MTDLL:SpeedTreeCore_Windows_v7.1.dll
 0002:00000104       __imp_?PeakUse@CHeapSystem@SpeedTree@@SAAAIXZ 1002e104     SpeedTreeCore_Windows_v7.1_VS2008_MTDLL:SpeedTreeCore_Windows_v7.1.dll
 0002:00000108       __imp_?NumAllocs@CHeapSystem@SpeedTree@@SAAAIXZ 1002e108     SpeedTreeCore_Windows_v7.1_VS2008_MTDLL:SpeedTreeCore_Windows_v7.1.dll
 0002:0000010c       __imp_?Allocator@CHeapSystem@SpeedTree@@SAAAPAVCAllocator@2@XZ 1002e10c     SpeedTreeCore_Windows_v7.1_VS2008_MTDLL:SpeedTreeCore_Windows_v7.1.dll
 0002:00000110       __imp_?CurrentUse@CHeapSystem@SpeedTree@@SAAAIXZ 1002e110     SpeedTreeCore_Windows_v7.1_VS2008_MTDLL:SpeedTreeCore_Windows_v7.1.dll
 0002:00000114       __imp_?ConvertFromStd@CCoordSys@SpeedTree@@SA?AVVec3@2@MMM@Z 1002e114     SpeedTreeCore_Windows_v7.1_VS2008_MTDLL:SpeedTreeCore_Windows_v7.1.dll
 0002:00000118       __imp_?SetDirection@CWind@SpeedTree@@QAEXABVVec3@2@@Z 1002e118     SpeedTreeCore_Windows_v7.1_VS2008_MTDLL:SpeedTreeCore_Windows_v7.1.dll
 0002:0000011c       __imp_?SetInitDirection@CWind@SpeedTree@@QAEXABVVec3@2@@Z 1002e11c     SpeedTreeCore_Windows_v7.1_VS2008_MTDLL:SpeedTreeCore_Windows_v7.1.dll
 0002:00000120       __imp_?SetStrength@CWind@SpeedTree@@QAEXM@Z 1002e120     SpeedTreeCore_Windows_v7.1_VS2008_MTDLL:SpeedTreeCore_Windows_v7.1.dll
 0002:00000124       __imp_?Advance@CWind@SpeedTree@@QAEX_NM@Z 1002e124     SpeedTreeCore_Windows_v7.1_VS2008_MTDLL:SpeedTreeCore_Windows_v7.1.dll
 0002:00000128       __imp_?SetError@CCore@SpeedTree@@SAXPBDZZ 1002e128     SpeedTreeCore_Windows_v7.1_VS2008_MTDLL:SpeedTreeCore_Windows_v7.1.dll
 0002:0000012c       __imp_??0SResourceStats@CCore@SpeedTree@@QAE@XZ 1002e12c     SpeedTreeCore_Windows_v7.1_VS2008_MTDLL:SpeedTreeCore_Windows_v7.1.dll
 0002:00000130       __imp_?UpComponent@CCoordSys@SpeedTree@@SAMQBM@Z 1002e130     SpeedTreeCore_Windows_v7.1_VS2008_MTDLL:SpeedTreeCore_Windows_v7.1.dll
 0002:00000134       __imp_?RotateUpAxis@CCoordSys@SpeedTree@@SAXAAVMat3x3@2@M@Z 1002e134     SpeedTreeCore_Windows_v7.1_VS2008_MTDLL:SpeedTreeCore_Windows_v7.1.dll
 0002:00000138       __imp_?ConvertToStd@CCoordSys@SpeedTree@@SA?AVVec3@2@QBM@Z 1002e138     SpeedTreeCore_Windows_v7.1_VS2008_MTDLL:SpeedTreeCore_Windows_v7.1.dll
 0002:0000013c       __imp_?IsLeftHanded@CCoordSys@SpeedTree@@SA_NXZ 1002e13c     SpeedTreeCore_Windows_v7.1_VS2008_MTDLL:SpeedTreeCore_Windows_v7.1.dll
 0002:00000140       __imp_?IsYAxisUp@CCoordSys@SpeedTree@@SA_NXZ 1002e140     SpeedTreeCore_Windows_v7.1_VS2008_MTDLL:SpeedTreeCore_Windows_v7.1.dll
 0002:00000144       \177SpeedTreeCore_Windows_v7.1_NULL_THUNK_DATA 1002e144     SpeedTreeCore_Windows_v7.1_VS2008_MTDLL:SpeedTreeCore_Windows_v7.1.dll
 0002:00000148       ___xc_a                    1002e148     MSVCRT:cinitexe.obj
 0002:000001d0       ___xc_z                    1002e1d0     MSVCRT:cinitexe.obj
 0002:000001d4       ___xi_a                    1002e1d4     MSVCRT:cinitexe.obj
 0002:000001e0       ___xi_z                    1002e1e0     MSVCRT:cinitexe.obj
 0002:0000020c       ??_C@_0P@GHFPNOJB@bad?5allocation?$AA@ 1002e20c     Culling.obj
 0002:0000021c       ??_C@_01KMDKNFGN@?1?$AA@   1002e21c     Culling.obj
 0002:00000224       __real@00000000            1002e224     Culling.obj
 0002:00000228       __real@3ff0000000000000    1002e228     Culling.obj
 0002:00000230       __real@3e80000000000000    1002e230     Culling.obj
 0002:00000238       __real@3f800000            1002e238     Culling.obj
 0002:0000023c       __real@1e3ce508            1002e23c     Culling.obj
 0002:00000240       __real@c000000000000000    1002e240     Culling.obj
 0002:00000248       __real@4000000000000000    1002e248     Culling.obj
 0002:00000250       __real@bf800000            1002e250     Culling.obj
 0002:00000258       __real@3fe0000000000000    1002e258     Culling.obj
 0002:00000260       ??_7CCoordSysBase@SpeedTree@@6B@ 1002e260     Culling.obj
 0002:0000029c       __real@ff7fffff            1002e29c     Culling.obj
 0002:000002a0       __real@7f7fffff            1002e2a0     Culling.obj
 0002:000002a8       __real@c7efffffe0000000    1002e2a8     Culling.obj
 0002:000002b0       __real@47efffffe0000000    1002e2b0     Culling.obj
 0002:000002b8       __real@3f000000            1002e2b8     Culling.obj
 0002:000002bc       ??_7CAllocator@SpeedTree@@6B@ 1002e2bc     Culling.obj
 0002:000002c8       __real@0000000000000000    1002e2c8     Culling.obj
 0002:000002d0       ??_7?$CBasicFixedString@$0BAA@@SpeedTree@@6B@ 1002e2d0     Culling.obj
 0002:000002d4       __real@44bb8000            1002e2d4     Culling.obj
 0002:000002d8       __real@44960000            1002e2d8     Culling.obj
 0002:000002dc       __real@44a28000            1002e2dc     Culling.obj
 0002:000002e0       __real@43960000            1002e2e0     Culling.obj
 0002:000002e8       ??_C@_0FN@BLBNOHIO@CCore?3?3SetLodProfile?$CI?$CJ?0?5one?5of?5t@ 1002e2e8     Culling.obj
 0002:00000348       __real@406fe00000000000    1002e348     Culling.obj
 0002:00000350       ?asDescs@?1??GetVertexPropertyDesc@CCore@SpeedTree@@SAABUSVertexPropertyDesc@3@U?$Enumeration@W4EVertexPropertyUntyped@SpeedTree@@D@3@@Z@4QBU43@B 1002e350     Culling.obj
 0002:0000044c       ??_C@_0L@EGJECNPE@UNASSIGNED?$AA@ 1002e44c     Culling.obj
 0002:00000458       ??_C@_04BFOKOJHP@UASS?$AA@ 1002e458     Culling.obj
 0002:00000460       ??_C@_08GCJNLIKG@Position?$AA@ 1002e460     Culling.obj
 0002:0000046c       ??_C@_04EBMCAJJP@posi?$AA@ 1002e46c     Culling.obj
 0002:00000474       ??_C@_0BB@PJFEEHJC@DiffuseTexCoords?$AA@ 1002e474     Culling.obj
 0002:00000488       ??_C@_04GCAENOJH@texd?$AA@ 1002e488     Culling.obj
 0002:00000490       ??_C@_06EFAGIKOH@Normal?$AA@ 1002e490     Culling.obj
 0002:00000498       ??_C@_04PLLMIPEP@norm?$AA@ 1002e498     Culling.obj
 0002:000004a0       ??_C@_0M@NBAIFGOC@LodPosition?$AA@ 1002e4a0     Culling.obj
 0002:000004ac       ??_C@_04GGLLGPPB@lodp?$AA@ 1002e4ac     Culling.obj
 0002:000004b4       ??_C@_0BB@LCIIINBM@GeometryTypeHint?$AA@ 1002e4b4     Culling.obj
 0002:000004c8       ??_C@_04NPKLNGDP@hint?$AA@ 1002e4c8     Culling.obj
 0002:000004d0       ??_C@_0P@MHJCKDAP@LeafCardCorner?$AA@ 1002e4d0     Culling.obj
 0002:000004e0       ??_C@_04HPBDHHGM@lfcc?$AA@ 1002e4e0     Culling.obj
 0002:000004e8       ??_C@_0BC@MGOJABJM@LeafCardLodScalar?$AA@ 1002e4e8     Culling.obj
 0002:000004fc       ??_C@_04DOINCCAA@lfls?$AA@ 1002e4fc     Culling.obj
 0002:00000504       ??_C@_0BJ@BKGEJAGA@LeafCardSelfShadowOffset?$AA@ 1002e504     Culling.obj
 0002:00000520       ??_C@_04MPIAJLBA@lfso?$AA@ 1002e520     Culling.obj
 0002:00000528       ??_C@_0P@GNJBBLOP@WindBranchData?$AA@ 1002e528     Culling.obj
 0002:00000538       ??_C@_04EPALPBKC@wbrn?$AA@ 1002e538     Culling.obj
 0002:00000540       ??_C@_0O@GGNALGEE@WindExtraData?$AA@ 1002e540     Culling.obj
 0002:00000550       ??_C@_04GPGGLGBG@wext?$AA@ 1002e550     Culling.obj
 0002:00000558       ??_C@_09ECDGPDPD@WindFlags?$AA@ 1002e558     Culling.obj
 0002:00000564       ??_C@_04HBDFDMG@wflg?$AA@  1002e564     Culling.obj
 0002:0000056c       ??_C@_0BA@KIOKCGN@LeafAnchorPoint?$AA@ 1002e56c     Culling.obj
 0002:0000057c       ??_C@_04OKBMNMIG@lanc?$AA@ 1002e57c     Culling.obj
 0002:00000584       ??_C@_06IJABALAN@BoneID?$AA@ 1002e584     Culling.obj
 0002:0000058c       ??_C@_04EHEBPCPD@bnid?$AA@ 1002e58c     Culling.obj
 0002:00000594       ??_C@_0BC@JLIIJOFB@BranchSeamDiffuse?$AA@ 1002e594     Culling.obj
 0002:000005a8       ??_C@_04NPNMIMGA@bsdf?$AA@ 1002e5a8     Culling.obj
 0002:000005b0       ??_C@_0BB@PJNHBMLN@BranchSeamDetail?$AA@ 1002e5b0     Culling.obj
 0002:000005c4       ??_C@_04KHCIPMLD@bsdt?$AA@ 1002e5c4     Culling.obj
 0002:000005cc       ??_C@_0BA@JDEGODIJ@DetailTexCoords?$AA@ 1002e5cc     Culling.obj
 0002:000005dc       ??_C@_04KKNNFEJP@texl?$AA@ 1002e5dc     Culling.obj
 0002:000005e4       ??_C@_07HKHOACGF@Tangent?$AA@ 1002e5e4     Culling.obj
 0002:000005ec       ??_C@_04NOOAMFMB@tang?$AA@ 1002e5ec     Culling.obj
 0002:000005f4       ??_C@_0BC@OFBMNCFH@LightMapTexCoords?$AA@ 1002e5f4     Culling.obj
 0002:00000608       ??_C@_04MKHJGFJB@lmap?$AA@ 1002e608     Culling.obj
 0002:00000610       ??_C@_0BB@ILOHAIEP@AmbientOcclusion?$AA@ 1002e610     Culling.obj
 0002:00000624       ??_C@_04PKILPMFH@aocc?$AA@ 1002e624     Culling.obj
 0002:0000062c       ??_C@_03FNDCCAPF@Pad?$AA@  1002e62c     Culling.obj
 0002:00000630       ??_C@_03PNAAIPML@pad?$AA@  1002e630     Culling.obj
 0002:00000638       ?asDescs@?1??GetPixelPropertyDesc@CCore@SpeedTree@@SAABUSPixelPropertyDesc@3@W4EPixelProperty@3@@Z@4QBU43@B 1002e638     Culling.obj
 0002:00000770       ??_C@_0L@HJOMBOJA@Projection?$AA@ 1002e770     Culling.obj
 0002:0000077c       ??_C@_04NNKAIPAK@proj?$AA@ 1002e77c     Culling.obj
 0002:00000784       ??_C@_09MLMGCFEC@FogScalar?$AA@ 1002e784     Culling.obj
 0002:00000790       ??_C@_04FGAJKMK@fogs?$AA@  1002e790     Culling.obj
 0002:00000798       ??_C@_08EOHIBGCM@FogColor?$AA@ 1002e798     Culling.obj
 0002:000007a4       ??_C@_04EPKCIIJL@fogc?$AA@ 1002e7a4     Culling.obj
 0002:000007ac       ??_C@_0BH@HEFJHJPF@PerVertexLightingColor?$AA@ 1002e7ac     Culling.obj
 0002:000007c4       ??_C@_04IBEGBNEN@pvlc?$AA@ 1002e7c4     Culling.obj
 0002:000007cc       ??_C@_0BH@GPKEFOAC@LightDirInTangentSpace?$AA@ 1002e7cc     Culling.obj
 0002:000007e4       ??_C@_04IGLBBIED@ldts?$AA@ 1002e7e4     Culling.obj
 0002:000007ec       ??_C@_08MOBOOILK@Binormal?$AA@ 1002e7ec     Culling.obj
 0002:000007f8       ??_C@_04IGPAAFCL@bnrm?$AA@ 1002e7f8     Culling.obj
 0002:00000800       ??_C@_0BD@IMKKLEAE@SpecularHalfVector?$AA@ 1002e800     Culling.obj
 0002:00000814       ??_C@_04GHJBGBJH@shvc?$AA@ 1002e814     Culling.obj
 0002:0000081c       ??_C@_0BF@DLCJCPCB@PerVertexSpecularDot?$AA@ 1002e81c     Culling.obj
 0002:00000834       ??_C@_04NJHNGPMH@pvsd?$AA@ 1002e834     Culling.obj
 0002:0000083c       ??_C@_0BJ@OLBFHDJH@PerVertexAmbientContrast?$AA@ 1002e83c     Culling.obj
 0002:00000858       ??_C@_04IJJOIOBO@pvac?$AA@ 1002e858     Culling.obj
 0002:00000860       ??_C@_0BC@KCFPAAF@BillboardTo3dFade?$AA@ 1002e860     Culling.obj
 0002:00000874       ??_C@_04FOIKIEKP@bb3f?$AA@ 1002e874     Culling.obj
 0002:0000087c       ??_C@_0BD@MJOKOONI@TransmissionFactor?$AA@ 1002e87c     Culling.obj
 0002:00000890       ??_C@_04EGNCMBME@tran?$AA@ 1002e890     Culling.obj
 0002:00000898       ??_C@_0BC@JPCGHODF@RenderEffectsFade?$AA@ 1002e898     Culling.obj
 0002:000008ac       ??_C@_04DOMGFHLE@efad?$AA@ 1002e8ac     Culling.obj
 0002:000008b4       ??_C@_04PDFOFOKH@?5?5ao?$AA@ 1002e8b4     Culling.obj
 0002:000008bc       ??_C@_04KJDLKNAL@bslt?$AA@ 1002e8bc     Culling.obj
 0002:000008c4       ??_C@_0M@GKIOBELN@ShadowDepth?$AA@ 1002e8c4     Culling.obj
 0002:000008d0       ??_C@_04FCMIICJE@sdep?$AA@ 1002e8d0     Culling.obj
 0002:000008d8       ??_C@_0BF@DJADIADD@ShadowMapProjection0?$AA@ 1002e8d8     Culling.obj
 0002:000008f0       ??_C@_04MFFEODIA@smp0?$AA@ 1002e8f0     Culling.obj
 0002:000008f8       ??_C@_0BF@CABILBHC@ShadowMapProjection1?$AA@ 1002e8f8     Culling.obj
 0002:00000910       ??_C@_04NMEPNCMB@smp1?$AA@ 1002e910     Culling.obj
 0002:00000918       ??_C@_0BF@LDFOCLB@ShadowMapProjection2?$AA@ 1002e918     Culling.obj
 0002:00000930       ??_C@_04PHGCIBAC@smp2?$AA@ 1002e930     Culling.obj
 0002:00000938       ??_C@_0BF@BCCONDPA@ShadowMapProjection3?$AA@ 1002e938     Culling.obj
 0002:00000950       ??_C@_04OOHJLAED@smp3?$AA@ 1002e950     Culling.obj
 0002:00000958       ??_C@_0N@LEAHCDFL@HueVariation?$AA@ 1002e958     Culling.obj
 0002:00000968       ??_C@_04PLAHLDHL@huev?$AA@ 1002e968     Culling.obj
 0002:00000970       ??_C@_07CIFAGBMG@unknown?$AA@ 1002e970     Culling.obj
 0002:00000978       ??_C@_01FJMABOPO@x?$AA@    1002e978     Culling.obj
 0002:0000097c       ??_C@_01EANLCPLP@y?$AA@    1002e97c     Culling.obj
 0002:00000980       ??_C@_01GLPGHMHM@z?$AA@    1002e980     Culling.obj
 0002:00000984       ??_C@_01NOFIACDB@w?$AA@    1002e984     Culling.obj
 0002:00000988       __real@3fb33333            1002e988     Culling.obj
 0002:0000098c       __real@3e4ccccd            1002e98c     Culling.obj
 0002:00000990       __real@41f00000            1002e990     Culling.obj
 0002:00000994       ??_C@_07BMBPNLPI@_shadow?$AA@ 1002e994     Culling.obj
 0002:0000099c       ??_C@_06DFFKBLON@_zpass?$AA@ 1002e99c     Culling.obj
 0002:000009a4       ??_C@_08HABOCCI@_forward?$AA@ 1002e9a4     Culling.obj
 0002:000009b0       ??_C@_04MFADHFCC@_s?$CFd?$AA@ 1002e9b0     Culling.obj
 0002:000009b8       ??_C@_09HABIKPNN@_deferred?$AA@ 1002e9b8     Culling.obj
 0002:000009c4       ??_C@_05PNOBCIKB@_wind?$AA@ 1002e9c4     Culling.obj
 0002:000009cc       ??_C@_05PLEHBCOF@_horz?$AA@ 1002e9cc     Culling.obj
 0002:000009d4       ??_C@_09HJNFCLGI@billboard?$AA@ 1002e9d4     Culling.obj
 0002:000009e0       ??_C@_02HCAKAFB@_w?$AA@    1002e9e0     Culling.obj
 0002:000009e4       ??_C@_01LKDEMHDF@s?$AA@    1002e9e4     Culling.obj
 0002:000009e6       ??_C@_00CNPNBAHC@?$AA@     1002e9e6     Culling.obj
 0002:000009e8       ??_C@_0N@POPKGOCJ@rigid_meshes?$AA@ 1002e9e8     Culling.obj
 0002:000009f8       ??_C@_0O@DCGGFEMG@facing_leaves?$AA@ 1002e9f8     Culling.obj
 0002:00000a08       ??_C@_06NGLEBKLK@leaves?$AA@ 1002ea08     Culling.obj
 0002:00000a10       ??_C@_0BA@PMCKECKB@fronds_and_caps?$AA@ 1002ea10     Culling.obj
 0002:00000a20       ??_C@_08PACHAMGK@branches?$AA@ 1002ea20     Culling.obj
 0002:00000a2c       ??_C@_05JOBLOEL@grass?$AA@ 1002ea2c     Culling.obj
 0002:00000a34       ??_C@_02HAOIJKIC@?$CFc?$AA@ 1002ea34     Culling.obj
 0002:00000a38       ??_C@_02DPKJAMEF@?$CFd?$AA@ 1002ea38     Culling.obj
 0002:00000a3c       ??_C@_04LOCMGGPM@?$CFd?$CFs?$AA@ 1002ea3c     Culling.obj
 0002:00000a44       ??_C@_02NJNOFBBI@?$CFx?$AA@ 1002ea44     Culling.obj
 0002:00000a48       ??_C@_04IHGKJMLH@byte?$AA@ 1002ea48     Culling.obj
 0002:00000a50       ??_C@_0L@MAEIDIIL@half?5float?$AA@ 1002ea50     Culling.obj
 0002:00000a5c       ??_C@_0L@CNLLCONH@full?5float?$AA@ 1002ea5c     Culling.obj
 0002:00000a68       ??_C@_06DMPPPHJO@ATTR15?$AA@ 1002ea68     Culling.obj
 0002:00000a70       ??_C@_06CFOEMGNP@ATTR14?$AA@ 1002ea70     Culling.obj
 0002:00000a78       ??_C@_06GKKFFABI@ATTR13?$AA@ 1002ea78     Culling.obj
 0002:00000a80       ??_C@_06HDLOGBFJ@ATTR12?$AA@ 1002ea80     Culling.obj
 0002:00000a88       ??_C@_06FIJDDCJK@ATTR11?$AA@ 1002ea88     Culling.obj
 0002:00000a90       ??_C@_06EBIIADNL@ATTR10?$AA@ 1002ea90     Culling.obj
 0002:00000a98       ??_C@_05GCHJABAP@ATTR9?$AA@ 1002ea98     Culling.obj
 0002:00000aa0       ??_C@_05HLGCDAEO@ATTR8?$AA@ 1002eaa0     Culling.obj
 0002:00000aa8       ??_C@_05PMPKCMIB@ATTR7?$AA@ 1002eaa8     Culling.obj
 0002:00000ab0       ??_C@_05OFOBBNMA@ATTR6?$AA@ 1002eab0     Culling.obj
 0002:00000ab8       ??_C@_05MOMMEOAD@ATTR5?$AA@ 1002eab8     Culling.obj
 0002:00000ac0       ??_C@_05NHNHHPEC@ATTR4?$AA@ 1002eac0     Culling.obj
 0002:00000ac8       ??_C@_05JIJGOJIF@ATTR3?$AA@ 1002eac8     Culling.obj
 0002:00000ad0       ??_C@_05IBINNIME@ATTR2?$AA@ 1002ead0     Culling.obj
 0002:00000ad8       ??_C@_05KKKAILAH@ATTR1?$AA@ 1002ead8     Culling.obj
 0002:00000ae0       ??_C@_05LDLLLKEG@ATTR0?$AA@ 1002eae0     Culling.obj
 0002:00000ae8       ??_C@_07MNGEECKF@?$FN?5?$CI?$CFs?$CJ?6?$AA@ 1002eae8     Culling.obj
 0002:00000af0       ??_C@_0L@KMGKLCBO@?$CFs?4?$CFs?$CI?$CFd?$CJ?5?$AA@ 1002eaf0     Culling.obj
 0002:00000afc       ??_C@_07BAFKDPAL@?5?5?$CFs?5?$FL?5?$AA@ 1002eafc     Culling.obj
 0002:00000b04       ??_C@_0O@BAKOBHGP@16?9bit?5floats?$AA@ 1002eb04     Culling.obj
 0002:00000b14       ??_C@_0O@DBHJLJFE@32?9bit?5floats?$AA@ 1002eb14     Culling.obj
 0002:00000b24       ??_7?$CArray@D$00@SpeedTree@@6B@ 1002eb24     Culling.obj
 0002:00000b28       __real@408f400000000000    1002eb28     Culling.obj
 0002:00000b30       __real@412e848000000000    1002eb30     Culling.obj
 0002:00000b38       ??_7?$CArray@PAUSNode@CScopeTrace@SpeedTree@@$00@SpeedTree@@6B@ 1002eb38     Culling.obj
 0002:00000b3c       ??_7?$CBlockPool@$00@SpeedTree@@6B@ 1002eb3c     Culling.obj
 0002:00000b40       ??_7?$CMap@PBVCCore@SpeedTree@@V?$CArray@USInstance@SpeedTree@@$00@2@V?$CLess@PBVCCore@SpeedTree@@@2@$00@SpeedTree@@6B@ 1002eb40     Culling.obj
 0002:00000b44       ??_7?$CArray@PBUSTreeInstance@SpeedTree@@$00@SpeedTree@@6B@ 1002eb44     Culling.obj
 0002:00000b48       ??_7?$CArray@USInstance@SpeedTree@@$00@SpeedTree@@6B@ 1002eb48     Culling.obj
 0002:00000b4c       ??_7?$CArray@US3dTreeInstanceLod@SpeedTree@@$00@SpeedTree@@6B@ 1002eb4c     Culling.obj
 0002:00000b50       ??_7?$CArray@PAUSInstance@SpeedTree@@$00@SpeedTree@@6B@ 1002eb50     Culling.obj
 0002:00000b54       ??_7?$CArray@VCCell@SpeedTree@@$00@SpeedTree@@6B@ 1002eb54     Culling.obj
 0002:00000b58       ??_7?$CArray@PAUSHeapBlock@?$CCellHeapMgr@VCCell@SpeedTree@@@SpeedTree@@$00@SpeedTree@@6B@ 1002eb58     Culling.obj
 0002:00000b5c       ??_7?$CArray@PAVCCell@SpeedTree@@$00@SpeedTree@@6B@ 1002eb5c     Culling.obj
 0002:00000b60       ??_7?$CMap@USRowCol@SpeedTree@@PAVCCell@2@V?$CLess@USRowCol@SpeedTree@@@2@$00@SpeedTree@@6B@ 1002eb60     Culling.obj
 0002:00000b64       ??_7?$CArray@USDetailedCullData@SpeedTree@@$00@SpeedTree@@6B@ 1002eb64     Culling.obj
 0002:00000b68       ??_7CVisibleInstances@SpeedTree@@6B@ 1002eb68     Culling.obj
 0002:00000b78       ??_7CForest@SpeedTree@@6B@ 1002eb78     Culling.obj
 0002:00000b80       __real@42700000            1002eb80     Culling.obj
 0002:00000b88       __real@3f91df46a0000000    1002eb88     Culling.obj
 0002:00000b90       __real@42c80000            1002eb90     Culling.obj
 0002:00000b94       ??_7?$CArray@PAVCCore@SpeedTree@@$00@SpeedTree@@6B@ 1002eb94     Culling.obj
 0002:00000b98       __real@3d088889            1002eb98     Culling.obj
 0002:00000b9c       ??_C@_0CJ@OJOEBMGP@CVisibleInstances?3?3m_aPerBase3dI@ 1002eb9c     Culling.obj
 0002:00000bc8       ??_C@_0BI@HGEOPKJJ@CVisibleInstances?3?3CMap?$AA@ 1002ebc8     Culling.obj
 0002:00000be0       ??_C@_0BK@LAIINKBF@CVisibleInstances?3?3CArray?$AA@ 1002ebe0     Culling.obj
 0002:00000bfc       ??_7?$CBasicFixedString@$0IAA@@SpeedTree@@6B@ 1002ebfc     Culling.obj
 0002:00000c00       ??_7?$CArray@V?$CBasicFixedString@$0BAA@@SpeedTree@@$00@SpeedTree@@6B@ 1002ec00     Culling.obj
 0002:00000c04       ??_7?$CBasicString@$00@SpeedTree@@6B@ 1002ec04     Culling.obj
 0002:00000c08       ??_C@_0CA@KIJLNFIB@CCellHeapMgr?3?3m_aAvailableCells?$AA@ 1002ec08     Culling.obj
 0002:00000c28       ??_C@_0BM@KBJIHPLF@CCellHeapMgr?3?3m_aHeapBlocks?$AA@ 1002ec28     Culling.obj
 0002:00000c44       ??_7?$CArray@PAX$00@SpeedTree@@6B@ 1002ec44     Culling.obj
 0002:00000c48       ??_C@_07BCIIEJAJ@CString?$AA@ 1002ec48     Culling.obj
 0002:00000c50       ??_C@_06CGLICOLM@CArray?$AA@ 1002ec50     Culling.obj
 0002:00000c58       ??_C@_0CM@FGHLGOMJ@CArray?5?$CISDK?9side?5grass?5instance?5@ 1002ec58     Culling.obj
 0002:00000c84       ??_C@_0CL@GBENDBLN@CArray?5?$CISDK?9side?5tree?5instance?5p@ 1002ec84     Culling.obj
 0002:00000cb0       ??_C@_0BJ@BFHKOEIJ@CCellHeapMgr?3?3SHeapBlock?$AA@ 1002ecb0     Culling.obj
 0002:00000ccc       ??_C@_0BM@FFHAOGJJ@CCellHeapMgr?3?3m_aCellBuffer?$AA@ 1002eccc     Culling.obj
 0002:00000ce8       ??_C@_0CB@NDCLJBMA@CCellHeapMgr?3?3m_aGrassInstBuffer@ 1002ece8     Culling.obj
 0002:00000d0c       ??_C@_0L@PLPJAPAO@CBlockPool?$AA@ 1002ed0c     Culling.obj
 0002:00000d20       __real@bff0000000000000    1002ed20     Forest.obj
 0002:00000d28       __real@3f59999a            1002ed28     Forest.obj
 0002:00000d2c       __real@3f13b646            1002ed2c     Forest.obj
 0002:00000d30       ??_C@_0BJ@LGLMOGEL@CForest?3?3CollisionAdjust?$AA@ 1002ed30     Forest.obj
 0002:00000d4c       ??_7?$CArray@USCollisionSort@@$00@SpeedTree@@6B@ 1002ed4c     Forest.obj
 0002:00000d50       ??_7?$CStaticArray@USCollisionSort@@@SpeedTree@@6B@ 1002ed50     Forest.obj
 0002:00000d54       __real@41800000            1002ed54     Forest.obj
 0002:00000d5c       ??_7CTerrainCell@SpeedTree@@6B@ 1002ed5c     Terrain.obj
 0002:00000d60       ??_7?$CArray@PAVCTerrainCell@SpeedTree@@$00@SpeedTree@@6B@ 1002ed60     Terrain.obj
 0002:00000d64       ??_7?$CMap@USRowCol@SpeedTree@@VCTerrainCell@2@V?$CLess@USRowCol@SpeedTree@@@2@$00@SpeedTree@@6B@ 1002ed64     Terrain.obj
 0002:00000d68       ??_7?$CCellContainer@VCTerrainCell@SpeedTree@@@SpeedTree@@6B@ 1002ed68     Terrain.obj
 0002:00000d6c       ??_7?$CArray@G$00@SpeedTree@@6B@ 1002ed6c     Terrain.obj
 0002:00000d70       ??_7?$CArray@USIndexData@CTerrain@SpeedTree@@$00@SpeedTree@@6B@ 1002ed70     Terrain.obj
 0002:00000d74       ??_7CTerrain@SpeedTree@@6B@ 1002ed74     Terrain.obj
 0002:00000d80       ??_C@_0BO@LKHBONGH@CTerrain?3?3m_aPerCellIndexData?$AA@ 1002ed80     Terrain.obj
 0002:00000da0       ??_C@_0BL@GHIDFILK@CTerrain?3?3m_aMasterIndices?$AA@ 1002eda0     Terrain.obj
 0002:00000dbc       __real@c2c80000            1002edbc     Terrain.obj
 0002:00000dc0       __real@45fa0000            1002edc0     Terrain.obj
 0002:00000dc4       ??_C@_0BM@DGOCKLCB@STerrainCullResults?3?3CArray?$AA@ 1002edc4     Terrain.obj
 0002:00000de0       ??_C@_0FE@LOAPEBFL@Terrain?5system?5failed?5to?5initial@ 1002ede0     Terrain.obj
 0002:00000e38       ??_C@_0FF@BBNKANMB@CTerrain?3?3Init?5failed?0?5bad?5param@ 1002ee38     Terrain.obj
 0002:00000e90       __pRawDllMain              1002ee90     MSVCRT:crtdll.obj
 0002:00000e90       __pDefaultRawDllMain       1002ee90     MSVCRT:crtdll.obj
 0002:00000e9c       ?ProcessDetach@NativeDll@<CrtImplementationDetails>@@0IB 1002ee9c     MSVCRT:tncleanup.obj
 0002:00000ea0       ?ProcessAttach@NativeDll@<CrtImplementationDetails>@@0IB 1002eea0     MSVCRT:tncleanup.obj
 0002:00000ea4       ?ThreadAttach@NativeDll@<CrtImplementationDetails>@@0IB 1002eea4     MSVCRT:tncleanup.obj
 0002:00000ea8       ?ThreadDetach@NativeDll@<CrtImplementationDetails>@@0IB 1002eea8     MSVCRT:tncleanup.obj
 0002:00000eac       ?ProcessVerifier@NativeDll@<CrtImplementationDetails>@@0IB 1002eeac     MSVCRT:tncleanup.obj
 0002:00000eb0       __load_config_used         1002eeb0     MSVCRT:loadcfg.obj
 0002:00000f80       ___safe_se_handler_table   1002ef80     <linker-defined>
 0002:00001098       ___rtc_iaa                 1002f098     MSVCRT:_initsect_.obj
 0002:0000109c       ___rtc_izz                 1002f09c     MSVCRT:_initsect_.obj
 0002:000010a0       ___rtc_taa                 1002f0a0     MSVCRT:_initsect_.obj
 0002:000010a4       ___rtc_tzz                 1002f0a4     MSVCRT:_initsect_.obj
 0002:00001ed4       __IMPORT_DESCRIPTOR_SpeedTreeCore_Windows_v7.1 1002fed4     SpeedTreeCore_Windows_v7.1_VS2008_MTDLL:SpeedTreeCore_Windows_v7.1.dll
 0002:00001ee8       __IMPORT_DESCRIPTOR_KERNEL32 1002fee8     kernel32:KERNEL32.dll
 0002:00001efc       __IMPORT_DESCRIPTOR_MSVCR90 1002fefc     MSVCRT:MSVCR90.dll
 0002:00001f10       __NULL_IMPORT_DESCRIPTOR   1002ff10     SpeedTreeCore_Windows_v7.1_VS2008_MTDLL:SpeedTreeCore_Windows_v7.1.dll
 0003:00000008       ?asNames@?4??ComponentName@CCore@SpeedTree@@SAPBDH@Z@4PAPBDA 10041008     Culling.obj
 0003:00000030       ___security_cookie         10041030     MSVCRT:gs_cookie.obj
 0003:00000034       ___security_cookie_complement 10041034     MSVCRT:gs_cookie.obj
 0003:00000038       ___native_dllmain_reason   10041038     MSVCRT:natstart.obj
 0003:0000003c       ___native_vcclrit_reason   1004103c     MSVCRT:natstart.obj
 0003:0000054c       __forceCRTManifestRTM      1004154c     MSVCRT:crtmanifestrtm.obj
 0003:00000550       ?__type_info_root_node@@3U__type_info_node@@A 10041550     MSVCRT:tncleanup.obj
 0003:00000558       __adjust_fdiv              10041558     <common>
 0003:0000055c       ___native_startup_state    1004155c     <common>
 0003:00000560       ___native_startup_lock     10041560     <common>
 0003:00000564       ___onexitend               10041564     <common>
 0003:00000568       ___onexitbegin             10041568     <common>
 0003:0000056c       ___sse2_available          1004156c     <common>
 0003:00000570       ___dyn_tls_init_callback   10041570     <common>

 entry point at        0001:0002ac22

 Static symbols

 0001:fffff000       __unwindfunclet$??0SRenderState@SpeedTree@@QAE@XZ$0 10000000 f   Terrain.obj
 0001:fffff000       __unwindfunclet$??$st_new_array@V?$CBasicFixedString@$0BAA@@SpeedTree@@@SpeedTree@@YAPAV?$CBasicFixedString@$0BAA@@0@IPBDW4EAllocationType@0@@Z$0 10000000 f   Forest.obj
 0001:fffff000       __unwindfunclet$??$st_new_array@USInstance@SpeedTree@@@SpeedTree@@YAPAUSInstance@0@IPBDW4EAllocationType@0@@Z$0 10000000 f   Forest.obj
 0001:fffff000       __unwindfunclet$?Allocate@?$CArray@V?$CBasicFixedString@$0BAA@@SpeedTree@@$00@SpeedTree@@IAEPAV?$CBasicFixedString@$0BAA@@2@I@Z$0 10000000 f   Forest.obj
 0001:fffff000       __unwindfunclet$??$st_new_array@USDetailedCullData@SpeedTree@@@SpeedTree@@YAPAUSDetailedCullData@0@IPBDW4EAllocationType@0@@Z$0 10000000 f   Forest.obj
 0001:fffff000       __unwindfunclet$??$st_new_array@VCCell@SpeedTree@@@SpeedTree@@YAPAVCCell@0@IPBDW4EAllocationType@0@@Z$0 10000000 f   Forest.obj
 0001:fffff000       __unwindfunclet$?Allocate@?$CArray@USInstance@SpeedTree@@$00@SpeedTree@@IAEPAUSInstance@2@I@Z$0 10000000 f   Forest.obj
 0001:fffff000       __unwindfunclet$?SetExternalMemory@?$CArray@V?$CBasicFixedString@$0BAA@@SpeedTree@@$00@SpeedTree@@QAEXPAEI@Z$0 10000000 f   Forest.obj
 0001:fffff000       __unwindfunclet$?Allocate@?$CArray@USDetailedCullData@SpeedTree@@$00@SpeedTree@@IAEPAUSDetailedCullData@2@I@Z$0 10000000 f   Forest.obj
 0001:fffff000       __unwindfunclet$?SetExternalMemory@?$CArray@USDetailedCullData@SpeedTree@@$00@SpeedTree@@QAEXPAEI@Z$0 10000000 f   Forest.obj
 0001:fffff000       __unwindfunclet$?VertexShaderHashName@SRenderState@SpeedTree@@QBE?AV?$CBasicFixedString@$0BAA@@2@ABVCWind@2@W4EShadowConfig@12@@Z$0 10000000 f   Terrain.obj
 0001:fffff000       __unwindfunclet$?Grow@?$CCellHeapMgr@VCCell@SpeedTree@@@SpeedTree@@AAEXXZ$0 10000000 f   Forest.obj
 0001:fffff000       __unwindfunclet$?Get5xModeHashName@SpeedTree@@YA?AV?$CBasicFixedString@$0BAA@@1@ABUSRenderState@1@@Z$0 10000000 f   Terrain.obj
 0001:fffff000       __unwindfunclet$?Allocate@?$CArray@VCCell@SpeedTree@@$00@SpeedTree@@IAEPAVCCell@2@I@Z$0 10000000 f   Forest.obj
 0001:fffff000       __unwindfunclet$??1CCell@SpeedTree@@QAE@XZ$0 10000000 f   Forest.obj
 0001:fffff000       __unwindfunclet$??0CCell@SpeedTree@@QAE@XZ$0 10000000 f   Forest.obj
 0001:fffff000       __unwindfunclet$?SetExternalMemory@?$CArray@VCCell@SpeedTree@@$00@SpeedTree@@QAEXPAEI@Z$0 10000000 f   Forest.obj
 0001:fffff000       __unwindfunclet$?SetExternalMemory@?$CArray@USInstance@SpeedTree@@$00@SpeedTree@@QAEXPAEI@Z$0 10000000 f   Forest.obj
 0001:fffff000       __unwindfunclet$?Base36@SpeedTree@@YA?AV?$CBasicFixedString@$0BAA@@1@I@Z$0 10000000 f   Terrain.obj
 0001:fffff000       __unwindfunclet$??4?$CMap@PBVCCore@SpeedTree@@V?$CArray@USInstance@SpeedTree@@$00@2@V?$CLess@PBVCCore@SpeedTree@@@2@$00@SpeedTree@@QAEAAV01@ABV01@@Z$0 10000000 f   Forest.obj
 0001:fffff000       __unwindfunclet$??0?$CBasicString@$00@SpeedTree@@QAE@PBD@Z$0 10000000 f   Forest.obj
 0001:fffff000       __unwindfunclet$??0SHeapBlock@?$CCellHeapMgr@VCCell@SpeedTree@@@SpeedTree@@QAE@ABU012@@Z$0 10000000 f   Forest.obj
 0001:fffff000       __unwindfunclet$?WindStateHashName@SRenderState@SpeedTree@@QBE?AV?$CBasicFixedString@$0BAA@@2@ABVCWind@2@@Z$0 10000000 f   Terrain.obj
 0001:fffff000       __unwindfunclet$??1SHeapBlock@?$CCellHeapMgr@VCCell@SpeedTree@@@SpeedTree@@QAE@XZ$0 10000000 f   Forest.obj
 0001:fffff000       __unwindfunclet$??4?$CMap@USRowCol@SpeedTree@@PAVCCell@2@V?$CLess@USRowCol@SpeedTree@@@2@$00@SpeedTree@@QAEAAV01@ABV01@@Z$0 10000000 f   Forest.obj
 0001:fffff000       __unwindfunclet$??1?$CMap@USRowCol@SpeedTree@@PAVCCell@2@V?$CLess@USRowCol@SpeedTree@@@2@$00@SpeedTree@@UAE@XZ$0 10000000 f   Forest.obj
 0001:fffff000       __unwindfunclet$??0?$CMap@USRowCol@SpeedTree@@PAVCCell@2@V?$CLess@USRowCol@SpeedTree@@@2@$00@SpeedTree@@QAE@ABV01@@Z$0 10000000 f   Forest.obj
 0001:fffff000       __unwindfunclet$??1?$CCellHeapMgr@VCCell@SpeedTree@@@SpeedTree@@QAE@XZ$0 10000000 f   Forest.obj
 0001:fffff000       __unwindfunclet$??1?$CMap@PBVCCore@SpeedTree@@V?$CArray@USInstance@SpeedTree@@$00@2@V?$CLess@PBVCCore@SpeedTree@@@2@$00@SpeedTree@@UAE@XZ$0 10000000 f   Forest.obj
 0001:fffff000       __unwindfunclet$?PixelShaderHashName@SRenderState@SpeedTree@@QBE?AV?$CBasicFixedString@$0BAA@@2@W4EShadowConfig@12@@Z$0 10000000 f   Terrain.obj
 0001:fffff000       __unwindfunclet$??1?$CBasicString@$00@SpeedTree@@UAE@XZ$0 10000000 f   Forest.obj
 0001:fffff000       __unwindfunclet$?PixelDeclHash@SRenderState@SpeedTree@@ABE?AV?$CBasicFixedString@$0BAA@@2@XZ$0 10000000 f   Terrain.obj
 0001:fffff000       __unwindfunclet$?Extension@?$CBasicFixedString@$0BAA@@SpeedTree@@QBE?AV12@D@Z$0 10000000 f   Forest.obj
 0001:fffff000       __unwindfunclet$?Format@?$CBasicFixedString@$0BAA@@SpeedTree@@SA?AV12@PBDZZ$0 10000000 f   Forest.obj
 0001:fffff000       __unwindfunclet$??H?$CBasicFixedString@$0BAA@@SpeedTree@@QBE?AV01@PBD@Z$0 10000000 f   Forest.obj
 0001:fffff000       __unwindfunclet$??H?$CBasicFixedString@$0BAA@@SpeedTree@@QBE?AV01@ABV01@@Z$0 10000000 f   Forest.obj
 0001:fffff000       __unwindfunclet$??0SGeometry@SpeedTree@@QAE@XZ$0 10000000 f   Terrain.obj
 0001:fffff000       __unwindfunclet$?ComputeCullParameters@STreeInstance@SpeedTree@@QAEXXZ$0 10000000 f   Forest.obj
 0001:fffff000       __unwindfunclet$??1SGeometry@SpeedTree@@QAE@XZ$0 10000000 f   Terrain.obj
 0001:fffff000       __unwindfunclet$??1CVisibleInstances@SpeedTree@@UAE@XZ$0 10000000 f   Forest.obj
 0001:fffff000       __unwindfunclet$??0CVisibleInstances@SpeedTree@@QAE@W4EPopulationType@1@_N@Z$0 10000000 f   Forest.obj
 0001:fffff000       __unwindfunclet$??0CVisibleInstances@SpeedTree@@QAE@ABV01@@Z$0 10000000 f   Forest.obj
 0001:fffff000       __unwindfunclet$?GetDescription@SVertexDecl@SpeedTree@@QBEXAAV?$CBasicString@$00@2@@Z$0 10000000 f   Terrain.obj
 0001:fffff000       __unwindfunclet$??_E?$CMap@USRowCol@SpeedTree@@PAVCCell@2@V?$CLess@USRowCol@SpeedTree@@@2@$00@SpeedTree@@UAEPAXI@Z$0 10000000 f   Forest.obj
 0001:fffff000       __unwindfunclet$??_G?$CMap@PBVCCore@SpeedTree@@V?$CArray@USInstance@SpeedTree@@$00@2@V?$CLess@PBVCCore@SpeedTree@@@2@$00@SpeedTree@@UAEPAXI@Z$0 10000000 f   Terrain.obj
 0001:fffff000       __unwindfunclet$??_G?$CMap@USRowCol@SpeedTree@@PAVCCell@2@V?$CLess@USRowCol@SpeedTree@@@2@$00@SpeedTree@@UAEPAXI@Z$0 10000000 f   Forest.obj
 0001:fffff000       __unwindfunclet$??_E?$CMap@PBVCCore@SpeedTree@@V?$CArray@USInstance@SpeedTree@@$00@2@V?$CLess@PBVCCore@SpeedTree@@@2@$00@SpeedTree@@UAEPAXI@Z$0 10000000 f   Terrain.obj
 0001:fffff000       __unwindfunclet$??0?$CCellHeapMgr@VCCell@SpeedTree@@@SpeedTree@@QAE@ABV01@@Z$0 10000000 f   Forest.obj
 0001:fffff000       __unwindfunclet$??1SDetailedCullData@SpeedTree@@QAE@XZ$0 10000000 f   Terrain.obj
 0001:fffff000       __unwindfunclet$??0SDetailedCullData@SpeedTree@@QAE@ABU01@@Z$0 10000000 f   Forest.obj
 0001:fffff000       __unwindfunclet$??0SDetailedCullData@SpeedTree@@QAE@ABU01@@Z$0 10000000 f   Terrain.obj
 0001:fffff000       __unwindfunclet$??1SDetailedCullData@SpeedTree@@QAE@XZ$0 10000000 f   Forest.obj
 0001:fffff000       __unwindfunclet$??0?$CCellHeapMgr@VCCell@SpeedTree@@@SpeedTree@@QAE@ABV01@@Z$0 10000000 f   Terrain.obj
 0001:fffff000       __unwindfunclet$??_E?$CMap@PBVCCore@SpeedTree@@V?$CArray@USInstance@SpeedTree@@$00@2@V?$CLess@PBVCCore@SpeedTree@@@2@$00@SpeedTree@@UAEPAXI@Z$0 10000000 f   Forest.obj
 0001:fffff000       __unwindfunclet$??_G?$CMap@USRowCol@SpeedTree@@PAVCCell@2@V?$CLess@USRowCol@SpeedTree@@@2@$00@SpeedTree@@UAEPAXI@Z$0 10000000 f   Terrain.obj
 0001:fffff000       __unwindfunclet$??_G?$CMap@PBVCCore@SpeedTree@@V?$CArray@USInstance@SpeedTree@@$00@2@V?$CLess@PBVCCore@SpeedTree@@@2@$00@SpeedTree@@UAEPAXI@Z$0 10000000 f   Forest.obj
 0001:fffff000       __unwindfunclet$??_E?$CMap@USRowCol@SpeedTree@@PAVCCell@2@V?$CLess@USRowCol@SpeedTree@@@2@$00@SpeedTree@@UAEPAXI@Z$0 10000000 f   Terrain.obj
 0001:fffff000       __unwindfunclet$?GetDescription@SVertexDecl@SpeedTree@@QBEXAAV?$CBasicString@$00@2@@Z$0 10000000 f   Forest.obj
 0001:fffff000       __unwindfunclet$??1SGeometry@SpeedTree@@QAE@XZ$0 10000000 f   Forest.obj
 0001:fffff000       __unwindfunclet$??0SGeometry@SpeedTree@@QAE@XZ$0 10000000 f   Forest.obj
 0001:fffff000       __unwindfunclet$?PixelDeclHash@SRenderState@SpeedTree@@ABE?AV?$CBasicFixedString@$0BAA@@2@XZ$0 10000000 f   Forest.obj
 0001:fffff000       __unwindfunclet$??0CVisibleInstances@SpeedTree@@QAE@ABV01@@Z$0 10000000 f   Terrain.obj
 0001:fffff000       __unwindfunclet$?PixelShaderHashName@SRenderState@SpeedTree@@QBE?AV?$CBasicFixedString@$0BAA@@2@W4EShadowConfig@12@@Z$0 10000000 f   Forest.obj
 0001:fffff000       __unwindfunclet$?WindStateHashName@SRenderState@SpeedTree@@QBE?AV?$CBasicFixedString@$0BAA@@2@ABVCWind@2@@Z$0 10000000 f   Forest.obj
 0001:fffff000       __unwindfunclet$??0CVisibleInstances@SpeedTree@@QAE@W4EPopulationType@1@_N@Z$0 10000000 f   Terrain.obj
 0001:fffff000       __unwindfunclet$?Base36@SpeedTree@@YA?AV?$CBasicFixedString@$0BAA@@1@I@Z$0 10000000 f   Forest.obj
 0001:fffff000       __unwindfunclet$?Get5xModeHashName@SpeedTree@@YA?AV?$CBasicFixedString@$0BAA@@1@ABUSRenderState@1@@Z$0 10000000 f   Forest.obj
 0001:fffff000       __unwindfunclet$?VertexShaderHashName@SRenderState@SpeedTree@@QBE?AV?$CBasicFixedString@$0BAA@@2@ABVCWind@2@W4EShadowConfig@12@@Z$0 10000000 f   Forest.obj
 0001:fffff000       __unwindfunclet$??0SRenderState@SpeedTree@@QAE@XZ$0 10000000 f   Forest.obj
 0001:fffff000       __unwindfunclet$??$st_new_array@V?$CBasicFixedString@$0BAA@@SpeedTree@@@SpeedTree@@YAPAV?$CBasicFixedString@$0BAA@@0@IPBDW4EAllocationType@0@@Z$0 10000000 f   Terrain.obj
 0001:fffff000       __unwindfunclet$??1CVisibleInstances@SpeedTree@@UAE@XZ$0 10000000 f   Terrain.obj
 0001:fffff000       __unwindfunclet$??$st_new_array@USInstance@SpeedTree@@@SpeedTree@@YAPAUSInstance@0@IPBDW4EAllocationType@0@@Z$0 10000000 f   Terrain.obj
 0001:fffff000       __unwindfunclet$?ComputeCullParameters@STreeInstance@SpeedTree@@QAEXXZ$0 10000000 f   Terrain.obj
 0001:fffff000       __unwindfunclet$?Allocate@?$CArray@V?$CBasicFixedString@$0BAA@@SpeedTree@@$00@SpeedTree@@IAEPAV?$CBasicFixedString@$0BAA@@2@I@Z$0 10000000 f   Terrain.obj
 0001:fffff000       __unwindfunclet$??$st_new_array@USDetailedCullData@SpeedTree@@@SpeedTree@@YAPAUSDetailedCullData@0@IPBDW4EAllocationType@0@@Z$0 10000000 f   Terrain.obj
 0001:fffff000       __unwindfunclet$??$st_new_array@VCCell@SpeedTree@@@SpeedTree@@YAPAVCCell@0@IPBDW4EAllocationType@0@@Z$0 10000000 f   Terrain.obj
 0001:fffff000       __unwindfunclet$?Allocate@?$CArray@USInstance@SpeedTree@@$00@SpeedTree@@IAEPAUSInstance@2@I@Z$0 10000000 f   Terrain.obj
 0001:fffff000       __unwindfunclet$?SetExternalMemory@?$CArray@V?$CBasicFixedString@$0BAA@@SpeedTree@@$00@SpeedTree@@QAEXPAEI@Z$0 10000000 f   Terrain.obj
 0001:fffff000       __unwindfunclet$?Allocate@?$CArray@USDetailedCullData@SpeedTree@@$00@SpeedTree@@IAEPAUSDetailedCullData@2@I@Z$0 10000000 f   Terrain.obj
 0001:fffff000       __unwindfunclet$?SetExternalMemory@?$CArray@USDetailedCullData@SpeedTree@@$00@SpeedTree@@QAEXPAEI@Z$0 10000000 f   Terrain.obj
 0001:fffff000       __unwindfunclet$?Grow@?$CCellHeapMgr@VCCell@SpeedTree@@@SpeedTree@@AAEXXZ$0 10000000 f   Terrain.obj
 0001:fffff000       __unwindfunclet$?Allocate@?$CArray@VCCell@SpeedTree@@$00@SpeedTree@@IAEPAVCCell@2@I@Z$0 10000000 f   Terrain.obj
 0001:fffff000       __unwindfunclet$??1CCell@SpeedTree@@QAE@XZ$0 10000000 f   Terrain.obj
 0001:fffff000       __unwindfunclet$??0CCell@SpeedTree@@QAE@XZ$0 10000000 f   Terrain.obj
 0001:fffff000       __unwindfunclet$?SetExternalMemory@?$CArray@VCCell@SpeedTree@@$00@SpeedTree@@QAEXPAEI@Z$0 10000000 f   Terrain.obj
 0001:fffff000       __unwindfunclet$?SetExternalMemory@?$CArray@USInstance@SpeedTree@@$00@SpeedTree@@QAEXPAEI@Z$0 10000000 f   Terrain.obj
 0001:fffff000       __unwindfunclet$??4?$CMap@PBVCCore@SpeedTree@@V?$CArray@USInstance@SpeedTree@@$00@2@V?$CLess@PBVCCore@SpeedTree@@@2@$00@SpeedTree@@QAEAAV01@ABV01@@Z$0 10000000 f   Terrain.obj
 0001:fffff000       __unwindfunclet$??0?$CBasicString@$00@SpeedTree@@QAE@PBD@Z$0 10000000 f   Terrain.obj
 0001:fffff000       __unwindfunclet$??0SHeapBlock@?$CCellHeapMgr@VCCell@SpeedTree@@@SpeedTree@@QAE@ABU012@@Z$0 10000000 f   Terrain.obj
 0001:fffff000       __unwindfunclet$??1SHeapBlock@?$CCellHeapMgr@VCCell@SpeedTree@@@SpeedTree@@QAE@XZ$0 10000000 f   Terrain.obj
 0001:fffff000       __unwindfunclet$??4?$CMap@USRowCol@SpeedTree@@PAVCCell@2@V?$CLess@USRowCol@SpeedTree@@@2@$00@SpeedTree@@QAEAAV01@ABV01@@Z$0 10000000 f   Terrain.obj
 0001:fffff000       __unwindfunclet$??1?$CMap@USRowCol@SpeedTree@@PAVCCell@2@V?$CLess@USRowCol@SpeedTree@@@2@$00@SpeedTree@@UAE@XZ$0 10000000 f   Terrain.obj
 0001:fffff000       __unwindfunclet$??0?$CMap@USRowCol@SpeedTree@@PAVCCell@2@V?$CLess@USRowCol@SpeedTree@@@2@$00@SpeedTree@@QAE@ABV01@@Z$0 10000000 f   Terrain.obj
 0001:fffff000       __unwindfunclet$??1?$CCellHeapMgr@VCCell@SpeedTree@@@SpeedTree@@QAE@XZ$0 10000000 f   Terrain.obj
 0001:fffff000       __unwindfunclet$??1?$CMap@PBVCCore@SpeedTree@@V?$CArray@USInstance@SpeedTree@@$00@2@V?$CLess@PBVCCore@SpeedTree@@@2@$00@SpeedTree@@UAE@XZ$0 10000000 f   Terrain.obj
 0001:fffff000       __unwindfunclet$??1?$CBasicString@$00@SpeedTree@@UAE@XZ$0 10000000 f   Terrain.obj
 0001:fffff000       __unwindfunclet$?Extension@?$CBasicFixedString@$0BAA@@SpeedTree@@QBE?AV12@D@Z$0 10000000 f   Terrain.obj
 0001:fffff000       __unwindfunclet$?Format@?$CBasicFixedString@$0BAA@@SpeedTree@@SA?AV12@PBDZZ$0 10000000 f   Terrain.obj
 0001:fffff000       __unwindfunclet$??H?$CBasicFixedString@$0BAA@@SpeedTree@@QBE?AV01@ABV01@@Z$0 10000000 f   Terrain.obj
 0001:fffff000       __unwindfunclet$??H?$CBasicFixedString@$0BAA@@SpeedTree@@QBE?AV01@PBD@Z$0 10000000 f   Terrain.obj
 0001:fffff008       __ehhandler$??0?$CBasicString@$00@SpeedTree@@QAE@PBD@Z 10000008 f   Terrain.obj
 0001:fffff008       __ehhandler$?ComputeCullParameters@STreeInstance@SpeedTree@@QAEXXZ 10000008 f   Forest.obj
 0001:fffff008       __ehhandler$??1?$CBasicString@$00@SpeedTree@@UAE@XZ 10000008 f   Forest.obj
 0001:fffff008       __unwindfunclet$?GetDescription@SVertexDecl@SpeedTree@@QBEXAAV?$CBasicString@$00@2@@Z$1 10000008 f   Terrain.obj
 0001:fffff008       __unwindfunclet$??4?$CMap@USRowCol@SpeedTree@@PAVCCell@2@V?$CLess@USRowCol@SpeedTree@@@2@$00@SpeedTree@@QAEAAV01@ABV01@@Z$1 10000008 f   Forest.obj
 0001:fffff008       __unwindfunclet$??1CCell@SpeedTree@@QAE@XZ$1 10000008 f   Terrain.obj
 0001:fffff008       __ehhandler$??1SHeapBlock@?$CCellHeapMgr@VCCell@SpeedTree@@@SpeedTree@@QAE@XZ 10000008 f   Forest.obj
 0001:fffff008       __ehhandler$??1?$CBasicString@$00@SpeedTree@@UAE@XZ 10000008 f   Terrain.obj
 0001:fffff008       __ehhandler$??0CCell@SpeedTree@@QAE@XZ 10000008 f   Terrain.obj
 0001:fffff008       __ehhandler$??0SHeapBlock@?$CCellHeapMgr@VCCell@SpeedTree@@@SpeedTree@@QAE@ABU012@@Z 10000008 f   Forest.obj
 0001:fffff008       __unwindfunclet$?GetDescription@SVertexDecl@SpeedTree@@QBEXAAV?$CBasicString@$00@2@@Z$1 10000008 f   Forest.obj
 0001:fffff008       __ehhandler$??0?$CBasicString@$00@SpeedTree@@QAE@PBD@Z 10000008 f   Forest.obj
 0001:fffff008       __unwindfunclet$??4?$CMap@PBVCCore@SpeedTree@@V?$CArray@USInstance@SpeedTree@@$00@2@V?$CLess@PBVCCore@SpeedTree@@@2@$00@SpeedTree@@QAEAAV01@ABV01@@Z$1 10000008 f   Forest.obj
 0001:fffff008       __unwindfunclet$??4?$CMap@PBVCCore@SpeedTree@@V?$CArray@USInstance@SpeedTree@@$00@2@V?$CLess@PBVCCore@SpeedTree@@@2@$00@SpeedTree@@QAEAAV01@ABV01@@Z$1 10000008 f   Terrain.obj
 0001:fffff008       __ehhandler$?ComputeCullParameters@STreeInstance@SpeedTree@@QAEXXZ 10000008 f   Terrain.obj
 0001:fffff008       __ehhandler$??0SHeapBlock@?$CCellHeapMgr@VCCell@SpeedTree@@@SpeedTree@@QAE@ABU012@@Z 10000008 f   Terrain.obj
 0001:fffff008       __ehhandler$??1SHeapBlock@?$CCellHeapMgr@VCCell@SpeedTree@@@SpeedTree@@QAE@XZ 10000008 f   Terrain.obj
 0001:fffff008       __unwindfunclet$??4?$CMap@USRowCol@SpeedTree@@PAVCCell@2@V?$CLess@USRowCol@SpeedTree@@@2@$00@SpeedTree@@QAEAAV01@ABV01@@Z$1 10000008 f   Terrain.obj
 0001:fffff008       __ehhandler$??0CCell@SpeedTree@@QAE@XZ 10000008 f   Forest.obj
 0001:fffff008       __unwindfunclet$??1CCell@SpeedTree@@QAE@XZ$1 10000008 f   Forest.obj
 0001:fffff00b       __unwindfunclet$?WindStateHashName@SRenderState@SpeedTree@@QBE?AV?$CBasicFixedString@$0BAA@@2@ABVCWind@2@@Z$1 1000000b f   Forest.obj
 0001:fffff00b       __unwindfunclet$?VertexShaderHashName@SRenderState@SpeedTree@@QBE?AV?$CBasicFixedString@$0BAA@@2@ABVCWind@2@W4EShadowConfig@12@@Z$1 1000000b f   Terrain.obj
 0001:fffff00b       __unwindfunclet$?Base36@SpeedTree@@YA?AV?$CBasicFixedString@$0BAA@@1@I@Z$1 1000000b f   Forest.obj
 0001:fffff00b       __ehhandler$?Allocate@?$CArray@VCCell@SpeedTree@@$00@SpeedTree@@IAEPAVCCell@2@I@Z 1000000b f   Forest.obj
 0001:fffff00b       __ehhandler$?Get5xModeHashName@SpeedTree@@YA?AV?$CBasicFixedString@$0BAA@@1@ABUSRenderState@1@@Z 1000000b f   Terrain.obj
 0001:fffff00b       __unwindfunclet$??0CVisibleInstances@SpeedTree@@QAE@W4EPopulationType@1@_N@Z$1 1000000b f   Terrain.obj
 0001:fffff00b       __ehhandler$??_E?$CMap@PBVCCore@SpeedTree@@V?$CArray@USInstance@SpeedTree@@$00@2@V?$CLess@PBVCCore@SpeedTree@@@2@$00@SpeedTree@@UAEPAXI@Z 1000000b f   Forest.obj
 0001:fffff00b       __ehhandler$??_G?$CMap@PBVCCore@SpeedTree@@V?$CArray@USInstance@SpeedTree@@$00@2@V?$CLess@PBVCCore@SpeedTree@@@2@$00@SpeedTree@@UAEPAXI@Z 1000000b f   Forest.obj
 0001:fffff00b       __ehhandler$?Get5xModeHashName@SpeedTree@@YA?AV?$CBasicFixedString@$0BAA@@1@ABUSRenderState@1@@Z 1000000b f   Forest.obj
 0001:fffff00b       __ehhandler$??1SDetailedCullData@SpeedTree@@QAE@XZ 1000000b f   Forest.obj
 0001:fffff00b       __ehhandler$??1?$CMap@USRowCol@SpeedTree@@PAVCCell@2@V?$CLess@USRowCol@SpeedTree@@@2@$00@SpeedTree@@UAE@XZ 1000000b f   Terrain.obj
 0001:fffff00b       __unwindfunclet$?Base36@SpeedTree@@YA?AV?$CBasicFixedString@$0BAA@@1@I@Z$1 1000000b f   Terrain.obj
 0001:fffff00b       __ehhandler$?Allocate@?$CArray@USDetailedCullData@SpeedTree@@$00@SpeedTree@@IAEPAUSDetailedCullData@2@I@Z 1000000b f   Forest.obj
 0001:fffff00b       __ehhandler$??1SDetailedCullData@SpeedTree@@QAE@XZ 1000000b f   Terrain.obj
 0001:fffff00b       __ehhandler$??_G?$CMap@USRowCol@SpeedTree@@PAVCCell@2@V?$CLess@USRowCol@SpeedTree@@@2@$00@SpeedTree@@UAEPAXI@Z 1000000b f   Terrain.obj
 0001:fffff00b       __ehhandler$?Allocate@?$CArray@USInstance@SpeedTree@@$00@SpeedTree@@IAEPAUSInstance@2@I@Z 1000000b f   Forest.obj
 0001:fffff00b       __ehhandler$??_E?$CMap@USRowCol@SpeedTree@@PAVCCell@2@V?$CLess@USRowCol@SpeedTree@@@2@$00@SpeedTree@@UAEPAXI@Z 1000000b f   Terrain.obj
 0001:fffff00b       __unwindfunclet$?VertexShaderHashName@SRenderState@SpeedTree@@QBE?AV?$CBasicFixedString@$0BAA@@2@ABVCWind@2@W4EShadowConfig@12@@Z$1 1000000b f   Forest.obj
 0001:fffff00b       __unwindfunclet$?PixelShaderHashName@SRenderState@SpeedTree@@QBE?AV?$CBasicFixedString@$0BAA@@2@W4EShadowConfig@12@@Z$1 1000000b f   Forest.obj
 0001:fffff00b       __ehhandler$??_E?$CMap@PBVCCore@SpeedTree@@V?$CArray@USInstance@SpeedTree@@$00@2@V?$CLess@PBVCCore@SpeedTree@@@2@$00@SpeedTree@@UAEPAXI@Z 1000000b f   Terrain.obj
 0001:fffff00b       __ehhandler$??_G?$CMap@PBVCCore@SpeedTree@@V?$CArray@USInstance@SpeedTree@@$00@2@V?$CLess@PBVCCore@SpeedTree@@@2@$00@SpeedTree@@UAEPAXI@Z 1000000b f   Terrain.obj
 0001:fffff00b       __ehhandler$??1?$CMap@PBVCCore@SpeedTree@@V?$CArray@USInstance@SpeedTree@@$00@2@V?$CLess@PBVCCore@SpeedTree@@@2@$00@SpeedTree@@UAE@XZ 1000000b f   Terrain.obj
 0001:fffff00b       __unwindfunclet$?WindStateHashName@SRenderState@SpeedTree@@QBE?AV?$CBasicFixedString@$0BAA@@2@ABVCWind@2@@Z$1 1000000b f   Terrain.obj
 0001:fffff00b       __ehhandler$?Allocate@?$CArray@V?$CBasicFixedString@$0BAA@@SpeedTree@@$00@SpeedTree@@IAEPAV?$CBasicFixedString@$0BAA@@2@I@Z 1000000b f   Forest.obj
 0001:fffff00b       __unwindfunclet$??0CVisibleInstances@SpeedTree@@QAE@ABV01@@Z$1 1000000b f   Terrain.obj
 0001:fffff00b       __ehhandler$??_G?$CMap@USRowCol@SpeedTree@@PAVCCell@2@V?$CLess@USRowCol@SpeedTree@@@2@$00@SpeedTree@@UAEPAXI@Z 1000000b f   Forest.obj
 0001:fffff00b       __ehhandler$?Extension@?$CBasicFixedString@$0BAA@@SpeedTree@@QBE?AV12@D@Z 1000000b f   Terrain.obj
 0001:fffff00b       __ehhandler$??_E?$CMap@USRowCol@SpeedTree@@PAVCCell@2@V?$CLess@USRowCol@SpeedTree@@@2@$00@SpeedTree@@UAEPAXI@Z 1000000b f   Forest.obj
 0001:fffff00b       __ehhandler$?PixelDeclHash@SRenderState@SpeedTree@@ABE?AV?$CBasicFixedString@$0BAA@@2@XZ 1000000b f   Forest.obj
 0001:fffff00b       __ehhandler$??1?$CMap@USRowCol@SpeedTree@@PAVCCell@2@V?$CLess@USRowCol@SpeedTree@@@2@$00@SpeedTree@@UAE@XZ 1000000b f   Forest.obj
 0001:fffff00b       __ehhandler$?Allocate@?$CArray@VCCell@SpeedTree@@$00@SpeedTree@@IAEPAVCCell@2@I@Z 1000000b f   Terrain.obj
 0001:fffff00b       __unwindfunclet$??0CVisibleInstances@SpeedTree@@QAE@ABV01@@Z$1 1000000b f   Forest.obj
 0001:fffff00b       __ehhandler$?Format@?$CBasicFixedString@$0BAA@@SpeedTree@@SA?AV12@PBDZZ 1000000b f   Terrain.obj
 0001:fffff00b       __unwindfunclet$??0CVisibleInstances@SpeedTree@@QAE@W4EPopulationType@1@_N@Z$1 1000000b f   Forest.obj
 0001:fffff00b       __unwindfunclet$??1CVisibleInstances@SpeedTree@@UAE@XZ$1 1000000b f   Forest.obj
 0001:fffff00b       __ehhandler$??1SGeometry@SpeedTree@@QAE@XZ 1000000b f   Terrain.obj
 0001:fffff00b       __ehhandler$?Allocate@?$CArray@USDetailedCullData@SpeedTree@@$00@SpeedTree@@IAEPAUSDetailedCullData@2@I@Z 1000000b f   Terrain.obj
 0001:fffff00b       __ehhandler$??1?$CMap@PBVCCore@SpeedTree@@V?$CArray@USInstance@SpeedTree@@$00@2@V?$CLess@PBVCCore@SpeedTree@@@2@$00@SpeedTree@@UAE@XZ 1000000b f   Forest.obj
 0001:fffff00b       __unwindfunclet$?PixelShaderHashName@SRenderState@SpeedTree@@QBE?AV?$CBasicFixedString@$0BAA@@2@W4EShadowConfig@12@@Z$1 1000000b f   Terrain.obj
 0001:fffff00b       __ehhandler$??1SGeometry@SpeedTree@@QAE@XZ 1000000b f   Forest.obj
 0001:fffff00b       __ehhandler$?Extension@?$CBasicFixedString@$0BAA@@SpeedTree@@QBE?AV12@D@Z 1000000b f   Forest.obj
 0001:fffff00b       __ehhandler$?PixelDeclHash@SRenderState@SpeedTree@@ABE?AV?$CBasicFixedString@$0BAA@@2@XZ 1000000b f   Terrain.obj
 0001:fffff00b       __ehhandler$?Allocate@?$CArray@USInstance@SpeedTree@@$00@SpeedTree@@IAEPAUSInstance@2@I@Z 1000000b f   Terrain.obj
 0001:fffff00b       __ehhandler$?Format@?$CBasicFixedString@$0BAA@@SpeedTree@@SA?AV12@PBDZZ 1000000b f   Forest.obj
 0001:fffff00b       __ehhandler$??H?$CBasicFixedString@$0BAA@@SpeedTree@@QBE?AV01@PBD@Z 1000000b f   Terrain.obj
 0001:fffff00b       __ehhandler$??H?$CBasicFixedString@$0BAA@@SpeedTree@@QBE?AV01@PBD@Z 1000000b f   Forest.obj
 0001:fffff00b       __unwindfunclet$??0SGeometry@SpeedTree@@QAE@XZ$1 1000000b f   Terrain.obj
 0001:fffff00b       __ehhandler$??H?$CBasicFixedString@$0BAA@@SpeedTree@@QBE?AV01@ABV01@@Z 1000000b f   Terrain.obj
 0001:fffff00b       __ehhandler$?Allocate@?$CArray@V?$CBasicFixedString@$0BAA@@SpeedTree@@$00@SpeedTree@@IAEPAV?$CBasicFixedString@$0BAA@@2@I@Z 1000000b f   Terrain.obj
 0001:fffff00b       __ehhandler$??H?$CBasicFixedString@$0BAA@@SpeedTree@@QBE?AV01@ABV01@@Z 1000000b f   Forest.obj
 0001:fffff00b       __unwindfunclet$??1CVisibleInstances@SpeedTree@@UAE@XZ$1 1000000b f   Terrain.obj
 0001:fffff00b       __unwindfunclet$??0SGeometry@SpeedTree@@QAE@XZ$1 1000000b f   Forest.obj
 0001:fffff00e       __ehhandler$??0?$CMap@USRowCol@SpeedTree@@PAVCCell@2@V?$CLess@USRowCol@SpeedTree@@@2@$00@SpeedTree@@QAE@ABV01@@Z 1000000e f   Forest.obj
 0001:fffff00e       __unwindfunclet$??1?$CCellHeapMgr@VCCell@SpeedTree@@@SpeedTree@@QAE@XZ$1 1000000e f   Terrain.obj
 0001:fffff00e       __ehhandler$??0?$CMap@USRowCol@SpeedTree@@PAVCCell@2@V?$CLess@USRowCol@SpeedTree@@@2@$00@SpeedTree@@QAE@ABV01@@Z 1000000e f   Terrain.obj
 0001:fffff00e       __unwindfunclet$??1?$CCellHeapMgr@VCCell@SpeedTree@@@SpeedTree@@QAE@XZ$1 1000000e f   Forest.obj
 0001:fffff00e       __ehhandler$??0SDetailedCullData@SpeedTree@@QAE@ABU01@@Z 1000000e f   Forest.obj
 0001:fffff00e       __ehhandler$??0?$CCellHeapMgr@VCCell@SpeedTree@@@SpeedTree@@QAE@ABV01@@Z 1000000e f   Terrain.obj
 0001:fffff00e       __ehhandler$??0SDetailedCullData@SpeedTree@@QAE@ABU01@@Z 1000000e f   Terrain.obj
 0001:fffff00e       __ehhandler$??0?$CCellHeapMgr@VCCell@SpeedTree@@@SpeedTree@@QAE@ABV01@@Z 1000000e f   Forest.obj
 0001:fffff010       __ehhandler$??4?$CMap@USRowCol@SpeedTree@@PAVCCell@2@V?$CLess@USRowCol@SpeedTree@@@2@$00@SpeedTree@@QAEAAV01@ABV01@@Z 10000010 f   Terrain.obj
 0001:fffff010       __unwindfunclet$?GetDescription@SVertexDecl@SpeedTree@@QBEXAAV?$CBasicString@$00@2@@Z$2 10000010 f   Forest.obj
 0001:fffff010       __ehhandler$??4?$CMap@PBVCCore@SpeedTree@@V?$CArray@USInstance@SpeedTree@@$00@2@V?$CLess@PBVCCore@SpeedTree@@@2@$00@SpeedTree@@QAEAAV01@ABV01@@Z 10000010 f   Terrain.obj
 0001:fffff010       __ehhandler$??4?$CMap@PBVCCore@SpeedTree@@V?$CArray@USInstance@SpeedTree@@$00@2@V?$CLess@PBVCCore@SpeedTree@@@2@$00@SpeedTree@@QAEAAV01@ABV01@@Z 10000010 f   Forest.obj
 0001:fffff010       __unwindfunclet$?GetDescription@SVertexDecl@SpeedTree@@QBEXAAV?$CBasicString@$00@2@@Z$2 10000010 f   Terrain.obj
 0001:fffff010       __ehhandler$??4?$CMap@USRowCol@SpeedTree@@PAVCCell@2@V?$CLess@USRowCol@SpeedTree@@@2@$00@SpeedTree@@QAEAAV01@ABV01@@Z 10000010 f   Forest.obj
 0001:fffff011       __ehhandler$?Grow@?$CCellHeapMgr@VCCell@SpeedTree@@@SpeedTree@@AAEXXZ 10000011 f   Terrain.obj
 0001:fffff011       __ehhandler$?Grow@?$CCellHeapMgr@VCCell@SpeedTree@@@SpeedTree@@AAEXXZ 10000011 f   Forest.obj
 0001:fffff013       __unwindfunclet$??1CCell@SpeedTree@@QAE@XZ$2 10000013 f   Terrain.obj
 0001:fffff013       __unwindfunclet$??1CCell@SpeedTree@@QAE@XZ$2 10000013 f   Forest.obj
 0001:fffff013       __ehhandler$??0SRenderState@SpeedTree@@QAE@XZ 10000013 f   Forest.obj
 0001:fffff013       __ehhandler$??0SRenderState@SpeedTree@@QAE@XZ 10000013 f   Terrain.obj
 0001:fffff016       __unwindfunclet$?VertexShaderHashName@SRenderState@SpeedTree@@QBE?AV?$CBasicFixedString@$0BAA@@2@ABVCWind@2@W4EShadowConfig@12@@Z$2 10000016 f   Forest.obj
 0001:fffff016       __unwindfunclet$??0CVisibleInstances@SpeedTree@@QAE@ABV01@@Z$2 10000016 f   Forest.obj
 0001:fffff016       __unwindfunclet$??0CVisibleInstances@SpeedTree@@QAE@ABV01@@Z$2 10000016 f   Terrain.obj
 0001:fffff016       __unwindfunclet$??1CVisibleInstances@SpeedTree@@UAE@XZ$2 10000016 f   Terrain.obj
 0001:fffff016       __unwindfunclet$?PixelShaderHashName@SRenderState@SpeedTree@@QBE?AV?$CBasicFixedString@$0BAA@@2@W4EShadowConfig@12@@Z$2 10000016 f   Forest.obj
 0001:fffff016       __unwindfunclet$?Base36@SpeedTree@@YA?AV?$CBasicFixedString@$0BAA@@1@I@Z$2 10000016 f   Terrain.obj
 0001:fffff016       __ehhandler$??0CVisibleInstances@SpeedTree@@QAE@W4EPopulationType@1@_N@Z 10000016 f   Forest.obj
 0001:fffff016       __unwindfunclet$?WindStateHashName@SRenderState@SpeedTree@@QBE?AV?$CBasicFixedString@$0BAA@@2@ABVCWind@2@@Z$2 10000016 f   Terrain.obj
 0001:fffff016       __unwindfunclet$?Base36@SpeedTree@@YA?AV?$CBasicFixedString@$0BAA@@1@I@Z$2 10000016 f   Forest.obj
 0001:fffff016       __unwindfunclet$?PixelShaderHashName@SRenderState@SpeedTree@@QBE?AV?$CBasicFixedString@$0BAA@@2@W4EShadowConfig@12@@Z$2 10000016 f   Terrain.obj
 0001:fffff016       __ehhandler$??0CVisibleInstances@SpeedTree@@QAE@W4EPopulationType@1@_N@Z 10000016 f   Terrain.obj
 0001:fffff016       __unwindfunclet$??1CVisibleInstances@SpeedTree@@UAE@XZ$2 10000016 f   Forest.obj
 0001:fffff016       __unwindfunclet$?WindStateHashName@SRenderState@SpeedTree@@QBE?AV?$CBasicFixedString@$0BAA@@2@ABVCWind@2@@Z$2 10000016 f   Forest.obj
 0001:fffff016       __unwindfunclet$?VertexShaderHashName@SRenderState@SpeedTree@@QBE?AV?$CBasicFixedString@$0BAA@@2@ABVCWind@2@W4EShadowConfig@12@@Z$2 10000016 f   Terrain.obj
 0001:fffff017       __ehhandler$??$st_new_array@USDetailedCullData@SpeedTree@@@SpeedTree@@YAPAUSDetailedCullData@0@IPBDW4EAllocationType@0@@Z 10000017 f   Terrain.obj
 0001:fffff017       __ehhandler$??$st_new_array@USInstance@SpeedTree@@@SpeedTree@@YAPAUSInstance@0@IPBDW4EAllocationType@0@@Z 10000017 f   Forest.obj
 0001:fffff017       __ehhandler$??$st_new_array@USInstance@SpeedTree@@@SpeedTree@@YAPAUSInstance@0@IPBDW4EAllocationType@0@@Z 10000017 f   Terrain.obj
 0001:fffff017       __ehhandler$??$st_new_array@USDetailedCullData@SpeedTree@@@SpeedTree@@YAPAUSDetailedCullData@0@IPBDW4EAllocationType@0@@Z 10000017 f   Forest.obj
 0001:fffff018       __ehhandler$?GetDescription@SVertexDecl@SpeedTree@@QBEXAAV?$CBasicString@$00@2@@Z 10000018 f   Forest.obj
 0001:fffff018       __ehhandler$?GetDescription@SVertexDecl@SpeedTree@@QBEXAAV?$CBasicString@$00@2@@Z 10000018 f   Terrain.obj
 0001:fffff01a       __ehhandler$?SetExternalMemory@?$CArray@USInstance@SpeedTree@@$00@SpeedTree@@QAEXPAEI@Z 1000001a f   Forest.obj
 0001:fffff01a       __ehhandler$??$st_new_array@VCCell@SpeedTree@@@SpeedTree@@YAPAVCCell@0@IPBDW4EAllocationType@0@@Z 1000001a f   Terrain.obj
 0001:fffff01a       __ehhandler$??$st_new_array@V?$CBasicFixedString@$0BAA@@SpeedTree@@@SpeedTree@@YAPAV?$CBasicFixedString@$0BAA@@0@IPBDW4EAllocationType@0@@Z 1000001a f   Terrain.obj
 0001:fffff01a       __ehhandler$?SetExternalMemory@?$CArray@USDetailedCullData@SpeedTree@@$00@SpeedTree@@QAEXPAEI@Z 1000001a f   Forest.obj
 0001:fffff01a       __ehhandler$?SetExternalMemory@?$CArray@USInstance@SpeedTree@@$00@SpeedTree@@QAEXPAEI@Z 1000001a f   Terrain.obj
 0001:fffff01a       __ehhandler$??$st_new_array@V?$CBasicFixedString@$0BAA@@SpeedTree@@@SpeedTree@@YAPAV?$CBasicFixedString@$0BAA@@0@IPBDW4EAllocationType@0@@Z 1000001a f   Forest.obj
 0001:fffff01a       __ehhandler$??$st_new_array@VCCell@SpeedTree@@@SpeedTree@@YAPAVCCell@0@IPBDW4EAllocationType@0@@Z 1000001a f   Forest.obj
 0001:fffff01a       __ehhandler$?SetExternalMemory@?$CArray@USDetailedCullData@SpeedTree@@$00@SpeedTree@@QAEXPAEI@Z 1000001a f   Terrain.obj
 0001:fffff01c       __ehhandler$??1?$CCellHeapMgr@VCCell@SpeedTree@@@SpeedTree@@QAE@XZ 1000001c f   Forest.obj
 0001:fffff01c       __ehhandler$??1?$CCellHeapMgr@VCCell@SpeedTree@@@SpeedTree@@QAE@XZ 1000001c f   Terrain.obj
 0001:fffff01d       __ehhandler$?SetExternalMemory@?$CArray@VCCell@SpeedTree@@$00@SpeedTree@@QAEXPAEI@Z 1000001d f   Forest.obj
 0001:fffff01d       __ehhandler$?SetExternalMemory@?$CArray@V?$CBasicFixedString@$0BAA@@SpeedTree@@$00@SpeedTree@@QAEXPAEI@Z 1000001d f   Terrain.obj
 0001:fffff01d       __ehhandler$?SetExternalMemory@?$CArray@V?$CBasicFixedString@$0BAA@@SpeedTree@@$00@SpeedTree@@QAEXPAEI@Z 1000001d f   Forest.obj
 0001:fffff01d       __ehhandler$?SetExternalMemory@?$CArray@VCCell@SpeedTree@@$00@SpeedTree@@QAEXPAEI@Z 1000001d f   Terrain.obj
 0001:fffff01e       __unwindfunclet$??1CCell@SpeedTree@@QAE@XZ$5 1000001e f   Terrain.obj
 0001:fffff01e       __unwindfunclet$??1CCell@SpeedTree@@QAE@XZ$5 1000001e f   Forest.obj
 0001:fffff021       __unwindfunclet$?PixelShaderHashName@SRenderState@SpeedTree@@QBE?AV?$CBasicFixedString@$0BAA@@2@W4EShadowConfig@12@@Z$3 10000021 f   Terrain.obj
 0001:fffff021       __ehhandler$?WindStateHashName@SRenderState@SpeedTree@@QBE?AV?$CBasicFixedString@$0BAA@@2@ABVCWind@2@@Z 10000021 f   Terrain.obj
 0001:fffff021       __unwindfunclet$?Base36@SpeedTree@@YA?AV?$CBasicFixedString@$0BAA@@1@I@Z$3 10000021 f   Forest.obj
 0001:fffff021       __unwindfunclet$?Base36@SpeedTree@@YA?AV?$CBasicFixedString@$0BAA@@1@I@Z$3 10000021 f   Terrain.obj
 0001:fffff021       __unwindfunclet$??1CVisibleInstances@SpeedTree@@UAE@XZ$3 10000021 f   Forest.obj
 0001:fffff021       __unwindfunclet$?PixelShaderHashName@SRenderState@SpeedTree@@QBE?AV?$CBasicFixedString@$0BAA@@2@W4EShadowConfig@12@@Z$3 10000021 f   Forest.obj
 0001:fffff021       __unwindfunclet$?VertexShaderHashName@SRenderState@SpeedTree@@QBE?AV?$CBasicFixedString@$0BAA@@2@ABVCWind@2@W4EShadowConfig@12@@Z$3 10000021 f   Terrain.obj
 0001:fffff021       __unwindfunclet$??1CVisibleInstances@SpeedTree@@UAE@XZ$3 10000021 f   Terrain.obj
 0001:fffff021       __unwindfunclet$?VertexShaderHashName@SRenderState@SpeedTree@@QBE?AV?$CBasicFixedString@$0BAA@@2@ABVCWind@2@W4EShadowConfig@12@@Z$3 10000021 f   Forest.obj
 0001:fffff021       __unwindfunclet$??0CVisibleInstances@SpeedTree@@QAE@ABV01@@Z$3 10000021 f   Terrain.obj
 0001:fffff021       __ehhandler$?WindStateHashName@SRenderState@SpeedTree@@QBE?AV?$CBasicFixedString@$0BAA@@2@ABVCWind@2@@Z 10000021 f   Forest.obj
 0001:fffff021       __unwindfunclet$??0CVisibleInstances@SpeedTree@@QAE@ABV01@@Z$3 10000021 f   Forest.obj
 0001:fffff024       __unwindfunclet$??0SGeometry@SpeedTree@@QAE@XZ$2 10000024 f   Forest.obj
 0001:fffff024       __unwindfunclet$??0SGeometry@SpeedTree@@QAE@XZ$2 10000024 f   Terrain.obj
 0001:fffff029       __ehhandler$??1CCell@SpeedTree@@QAE@XZ 10000029 f   Terrain.obj
 0001:fffff029       __ehhandler$??1CCell@SpeedTree@@QAE@XZ 10000029 f   Forest.obj
 0001:fffff02c       __unwindfunclet$?PixelShaderHashName@SRenderState@SpeedTree@@QBE?AV?$CBasicFixedString@$0BAA@@2@W4EShadowConfig@12@@Z$4 1000002c f   Terrain.obj
 0001:fffff02c       __unwindfunclet$?VertexShaderHashName@SRenderState@SpeedTree@@QBE?AV?$CBasicFixedString@$0BAA@@2@ABVCWind@2@W4EShadowConfig@12@@Z$4 1000002c f   Forest.obj
 0001:fffff02c       __unwindfunclet$?Base36@SpeedTree@@YA?AV?$CBasicFixedString@$0BAA@@1@I@Z$4 1000002c f   Terrain.obj
 0001:fffff02c       __unwindfunclet$?PixelShaderHashName@SRenderState@SpeedTree@@QBE?AV?$CBasicFixedString@$0BAA@@2@W4EShadowConfig@12@@Z$4 1000002c f   Forest.obj
 0001:fffff02c       __unwindfunclet$?Base36@SpeedTree@@YA?AV?$CBasicFixedString@$0BAA@@1@I@Z$4 1000002c f   Forest.obj
 0001:fffff02c       __unwindfunclet$?VertexShaderHashName@SRenderState@SpeedTree@@QBE?AV?$CBasicFixedString@$0BAA@@2@ABVCWind@2@W4EShadowConfig@12@@Z$4 1000002c f   Terrain.obj
 0001:fffff02f       __unwindfunclet$??1CVisibleInstances@SpeedTree@@UAE@XZ$5 1000002f f   Forest.obj
 0001:fffff02f       __ehhandler$??0CVisibleInstances@SpeedTree@@QAE@ABV01@@Z 1000002f f   Terrain.obj
 0001:fffff02f       __ehhandler$??0CVisibleInstances@SpeedTree@@QAE@ABV01@@Z 1000002f f   Forest.obj
 0001:fffff02f       __unwindfunclet$??1CVisibleInstances@SpeedTree@@UAE@XZ$5 1000002f f   Terrain.obj
 0001:fffff032       __unwindfunclet$??0SGeometry@SpeedTree@@QAE@XZ$3 10000032 f   Forest.obj
 0001:fffff032       __unwindfunclet$??0SGeometry@SpeedTree@@QAE@XZ$3 10000032 f   Terrain.obj
 0001:fffff037       __unwindfunclet$?VertexShaderHashName@SRenderState@SpeedTree@@QBE?AV?$CBasicFixedString@$0BAA@@2@ABVCWind@2@W4EShadowConfig@12@@Z$5 10000037 f   Forest.obj
 0001:fffff037       __unwindfunclet$?PixelShaderHashName@SRenderState@SpeedTree@@QBE?AV?$CBasicFixedString@$0BAA@@2@W4EShadowConfig@12@@Z$5 10000037 f   Terrain.obj
 0001:fffff037       __ehhandler$?Base36@SpeedTree@@YA?AV?$CBasicFixedString@$0BAA@@1@I@Z 10000037 f   Terrain.obj
 0001:fffff037       __unwindfunclet$?VertexShaderHashName@SRenderState@SpeedTree@@QBE?AV?$CBasicFixedString@$0BAA@@2@ABVCWind@2@W4EShadowConfig@12@@Z$5 10000037 f   Terrain.obj
 0001:fffff037       __unwindfunclet$?PixelShaderHashName@SRenderState@SpeedTree@@QBE?AV?$CBasicFixedString@$0BAA@@2@W4EShadowConfig@12@@Z$5 10000037 f   Forest.obj
 0001:fffff037       __ehhandler$?Base36@SpeedTree@@YA?AV?$CBasicFixedString@$0BAA@@1@I@Z 10000037 f   Forest.obj
 0001:fffff03a       __ehhandler$??1CVisibleInstances@SpeedTree@@UAE@XZ 1000003a f   Forest.obj
 0001:fffff03a       __ehhandler$??1CVisibleInstances@SpeedTree@@UAE@XZ 1000003a f   Terrain.obj
 0001:fffff040       __ehhandler$??0SGeometry@SpeedTree@@QAE@XZ 10000040 f   Forest.obj
 0001:fffff040       __ehhandler$??0SGeometry@SpeedTree@@QAE@XZ 10000040 f   Terrain.obj
 0001:fffff042       __unwindfunclet$?VertexShaderHashName@SRenderState@SpeedTree@@QBE?AV?$CBasicFixedString@$0BAA@@2@ABVCWind@2@W4EShadowConfig@12@@Z$6 10000042 f   Forest.obj
 0001:fffff042       __ehhandler$?PixelShaderHashName@SRenderState@SpeedTree@@QBE?AV?$CBasicFixedString@$0BAA@@2@W4EShadowConfig@12@@Z 10000042 f   Terrain.obj
 0001:fffff042       __unwindfunclet$?VertexShaderHashName@SRenderState@SpeedTree@@QBE?AV?$CBasicFixedString@$0BAA@@2@ABVCWind@2@W4EShadowConfig@12@@Z$6 10000042 f   Terrain.obj
 0001:fffff042       __ehhandler$?PixelShaderHashName@SRenderState@SpeedTree@@QBE?AV?$CBasicFixedString@$0BAA@@2@W4EShadowConfig@12@@Z 10000042 f   Forest.obj
 0001:fffff04d       __unwindfunclet$?VertexShaderHashName@SRenderState@SpeedTree@@QBE?AV?$CBasicFixedString@$0BAA@@2@ABVCWind@2@W4EShadowConfig@12@@Z$7 1000004d f   Forest.obj
 0001:fffff04d       __unwindfunclet$?VertexShaderHashName@SRenderState@SpeedTree@@QBE?AV?$CBasicFixedString@$0BAA@@2@ABVCWind@2@W4EShadowConfig@12@@Z$7 1000004d f   Terrain.obj
 0001:fffff058       __unwindfunclet$?VertexShaderHashName@SRenderState@SpeedTree@@QBE?AV?$CBasicFixedString@$0BAA@@2@ABVCWind@2@W4EShadowConfig@12@@Z$8 10000058 f   Terrain.obj
 0001:fffff058       __unwindfunclet$?VertexShaderHashName@SRenderState@SpeedTree@@QBE?AV?$CBasicFixedString@$0BAA@@2@ABVCWind@2@W4EShadowConfig@12@@Z$8 10000058 f   Forest.obj
 0001:fffff063       __ehhandler$?VertexShaderHashName@SRenderState@SpeedTree@@QBE?AV?$CBasicFixedString@$0BAA@@2@ABVCWind@2@W4EShadowConfig@12@@Z 10000063 f   Forest.obj
 0001:fffff063       __ehhandler$?VertexShaderHashName@SRenderState@SpeedTree@@QBE?AV?$CBasicFixedString@$0BAA@@2@ABVCWind@2@W4EShadowConfig@12@@Z 10000063 f   Terrain.obj
 0001:0002a65c       ?ArrayUnwindFilter@@YAHPAU_EXCEPTION_POINTERS@@@Z 1002b65c f   MSVCRT:ehvecdtr.obj
 0001:0002a897       _pre_c_init                1002b897 f   MSVCRT:crtdll.obj
 0001:0002ab0c       ___DllMainCRTStartup       1002bb0c f   MSVCRT:crtdll.obj
 0001:0002acd2       _has_osfxsr_set            1002bcd2 f   MSVCRT:cpu_disp.obj
 0001:0002b270       __unwindfunclet$??0SRenderState@SpeedTree@@QAE@XZ$0 1002c270 f   Culling.obj
 0001:0002b283       __ehhandler$??0SRenderState@SpeedTree@@QAE@XZ 1002c283 f   Culling.obj
 0001:0002b2a0       __unwindfunclet$?VertexShaderHashName@SRenderState@SpeedTree@@QBE?AV?$CBasicFixedString@$0BAA@@2@ABVCWind@2@W4EShadowConfig@12@@Z$0 1002c2a0 f   Culling.obj
 0001:0002b2ab       __unwindfunclet$?VertexShaderHashName@SRenderState@SpeedTree@@QBE?AV?$CBasicFixedString@$0BAA@@2@ABVCWind@2@W4EShadowConfig@12@@Z$1 1002c2ab f   Culling.obj
 0001:0002b2b6       __unwindfunclet$?VertexShaderHashName@SRenderState@SpeedTree@@QBE?AV?$CBasicFixedString@$0BAA@@2@ABVCWind@2@W4EShadowConfig@12@@Z$2 1002c2b6 f   Culling.obj
 0001:0002b2c1       __unwindfunclet$?VertexShaderHashName@SRenderState@SpeedTree@@QBE?AV?$CBasicFixedString@$0BAA@@2@ABVCWind@2@W4EShadowConfig@12@@Z$3 1002c2c1 f   Culling.obj
 0001:0002b2cc       __unwindfunclet$?VertexShaderHashName@SRenderState@SpeedTree@@QBE?AV?$CBasicFixedString@$0BAA@@2@ABVCWind@2@W4EShadowConfig@12@@Z$4 1002c2cc f   Culling.obj
 0001:0002b2d7       __unwindfunclet$?VertexShaderHashName@SRenderState@SpeedTree@@QBE?AV?$CBasicFixedString@$0BAA@@2@ABVCWind@2@W4EShadowConfig@12@@Z$5 1002c2d7 f   Culling.obj
 0001:0002b2e2       __unwindfunclet$?VertexShaderHashName@SRenderState@SpeedTree@@QBE?AV?$CBasicFixedString@$0BAA@@2@ABVCWind@2@W4EShadowConfig@12@@Z$6 1002c2e2 f   Culling.obj
 0001:0002b2ed       __unwindfunclet$?VertexShaderHashName@SRenderState@SpeedTree@@QBE?AV?$CBasicFixedString@$0BAA@@2@ABVCWind@2@W4EShadowConfig@12@@Z$7 1002c2ed f   Culling.obj
 0001:0002b2f8       __unwindfunclet$?VertexShaderHashName@SRenderState@SpeedTree@@QBE?AV?$CBasicFixedString@$0BAA@@2@ABVCWind@2@W4EShadowConfig@12@@Z$8 1002c2f8 f   Culling.obj
 0001:0002b303       __ehhandler$?VertexShaderHashName@SRenderState@SpeedTree@@QBE?AV?$CBasicFixedString@$0BAA@@2@ABVCWind@2@W4EShadowConfig@12@@Z 1002c303 f   Culling.obj
 0001:0002b330       __unwindfunclet$?Get5xModeHashName@SpeedTree@@YA?AV?$CBasicFixedString@$0BAA@@1@ABUSRenderState@1@@Z$0 1002c330 f   Culling.obj
 0001:0002b33b       __ehhandler$?Get5xModeHashName@SpeedTree@@YA?AV?$CBasicFixedString@$0BAA@@1@ABUSRenderState@1@@Z 1002c33b f   Culling.obj
 0001:0002b370       __unwindfunclet$?Base36@SpeedTree@@YA?AV?$CBasicFixedString@$0BAA@@1@I@Z$0 1002c370 f   Culling.obj
 0001:0002b37b       __unwindfunclet$?Base36@SpeedTree@@YA?AV?$CBasicFixedString@$0BAA@@1@I@Z$1 1002c37b f   Culling.obj
 0001:0002b386       __unwindfunclet$?Base36@SpeedTree@@YA?AV?$CBasicFixedString@$0BAA@@1@I@Z$2 1002c386 f   Culling.obj
 0001:0002b391       __unwindfunclet$?Base36@SpeedTree@@YA?AV?$CBasicFixedString@$0BAA@@1@I@Z$3 1002c391 f   Culling.obj
 0001:0002b39c       __unwindfunclet$?Base36@SpeedTree@@YA?AV?$CBasicFixedString@$0BAA@@1@I@Z$4 1002c39c f   Culling.obj
 0001:0002b3a7       __ehhandler$?Base36@SpeedTree@@YA?AV?$CBasicFixedString@$0BAA@@1@I@Z 1002c3a7 f   Culling.obj
 0001:0002b3d0       __unwindfunclet$?WindStateHashName@SRenderState@SpeedTree@@QBE?AV?$CBasicFixedString@$0BAA@@2@ABVCWind@2@@Z$0 1002c3d0 f   Culling.obj
 0001:0002b3db       __unwindfunclet$?WindStateHashName@SRenderState@SpeedTree@@QBE?AV?$CBasicFixedString@$0BAA@@2@ABVCWind@2@@Z$1 1002c3db f   Culling.obj
 0001:0002b3e6       __unwindfunclet$?WindStateHashName@SRenderState@SpeedTree@@QBE?AV?$CBasicFixedString@$0BAA@@2@ABVCWind@2@@Z$2 1002c3e6 f   Culling.obj
 0001:0002b3f1       __ehhandler$?WindStateHashName@SRenderState@SpeedTree@@QBE?AV?$CBasicFixedString@$0BAA@@2@ABVCWind@2@@Z 1002c3f1 f   Culling.obj
 0001:0002b420       __unwindfunclet$?PixelShaderHashName@SRenderState@SpeedTree@@QBE?AV?$CBasicFixedString@$0BAA@@2@W4EShadowConfig@12@@Z$0 1002c420 f   Culling.obj
 0001:0002b42b       __unwindfunclet$?PixelShaderHashName@SRenderState@SpeedTree@@QBE?AV?$CBasicFixedString@$0BAA@@2@W4EShadowConfig@12@@Z$1 1002c42b f   Culling.obj
 0001:0002b436       __unwindfunclet$?PixelShaderHashName@SRenderState@SpeedTree@@QBE?AV?$CBasicFixedString@$0BAA@@2@W4EShadowConfig@12@@Z$2 1002c436 f   Culling.obj
 0001:0002b441       __unwindfunclet$?PixelShaderHashName@SRenderState@SpeedTree@@QBE?AV?$CBasicFixedString@$0BAA@@2@W4EShadowConfig@12@@Z$3 1002c441 f   Culling.obj
 0001:0002b44c       __unwindfunclet$?PixelShaderHashName@SRenderState@SpeedTree@@QBE?AV?$CBasicFixedString@$0BAA@@2@W4EShadowConfig@12@@Z$4 1002c44c f   Culling.obj
 0001:0002b457       __unwindfunclet$?PixelShaderHashName@SRenderState@SpeedTree@@QBE?AV?$CBasicFixedString@$0BAA@@2@W4EShadowConfig@12@@Z$5 1002c457 f   Culling.obj
 0001:0002b462       __ehhandler$?PixelShaderHashName@SRenderState@SpeedTree@@QBE?AV?$CBasicFixedString@$0BAA@@2@W4EShadowConfig@12@@Z 1002c462 f   Culling.obj
 0001:0002b490       __unwindfunclet$?PixelDeclHash@SRenderState@SpeedTree@@ABE?AV?$CBasicFixedString@$0BAA@@2@XZ$0 1002c490 f   Culling.obj
 0001:0002b49b       __ehhandler$?PixelDeclHash@SRenderState@SpeedTree@@ABE?AV?$CBasicFixedString@$0BAA@@2@XZ 1002c49b f   Culling.obj
 0001:0002b4d0       __unwindfunclet$??0SGeometry@SpeedTree@@QAE@XZ$0 1002c4d0 f   Culling.obj
 0001:0002b4db       __unwindfunclet$??0SGeometry@SpeedTree@@QAE@XZ$1 1002c4db f   Culling.obj
 0001:0002b4f4       __unwindfunclet$??0SGeometry@SpeedTree@@QAE@XZ$2 1002c4f4 f   Culling.obj
 0001:0002b502       __unwindfunclet$??0SGeometry@SpeedTree@@QAE@XZ$3 1002c502 f   Culling.obj
 0001:0002b510       __ehhandler$??0SGeometry@SpeedTree@@QAE@XZ 1002c510 f   Culling.obj
 0001:0002b530       __unwindfunclet$??1SGeometry@SpeedTree@@QAE@XZ$0 1002c530 f   Culling.obj
 0001:0002b53b       __ehhandler$??1SGeometry@SpeedTree@@QAE@XZ 1002c53b f   Culling.obj
 0001:0002b560       __unwindfunclet$?GetDescription@SVertexDecl@SpeedTree@@QBEXAAV?$CBasicString@$00@2@@Z$0 1002c560 f   Culling.obj
 0001:0002b568       __unwindfunclet$?GetDescription@SVertexDecl@SpeedTree@@QBEXAAV?$CBasicString@$00@2@@Z$1 1002c568 f   Culling.obj
 0001:0002b570       __unwindfunclet$?GetDescription@SVertexDecl@SpeedTree@@QBEXAAV?$CBasicString@$00@2@@Z$2 1002c570 f   Culling.obj
 0001:0002b578       __ehhandler$?GetDescription@SVertexDecl@SpeedTree@@QBEXAAV?$CBasicString@$00@2@@Z 1002c578 f   Culling.obj
 0001:0002b5a0       __unwindfunclet$??_G?$CMap@PBVCCore@SpeedTree@@V?$CArray@USInstance@SpeedTree@@$00@2@V?$CLess@PBVCCore@SpeedTree@@@2@$00@SpeedTree@@UAEPAXI@Z$0 1002c5a0 f   Culling.obj
 0001:0002b5ab       __ehhandler$??_G?$CMap@PBVCCore@SpeedTree@@V?$CArray@USInstance@SpeedTree@@$00@2@V?$CLess@PBVCCore@SpeedTree@@@2@$00@SpeedTree@@UAEPAXI@Z 1002c5ab f   Culling.obj
 0001:0002b5d0       __unwindfunclet$??_E?$CMap@PBVCCore@SpeedTree@@V?$CArray@USInstance@SpeedTree@@$00@2@V?$CLess@PBVCCore@SpeedTree@@@2@$00@SpeedTree@@UAEPAXI@Z$0 1002c5d0 f   Culling.obj
 0001:0002b5db       __ehhandler$??_E?$CMap@PBVCCore@SpeedTree@@V?$CArray@USInstance@SpeedTree@@$00@2@V?$CLess@PBVCCore@SpeedTree@@@2@$00@SpeedTree@@UAEPAXI@Z 1002c5db f   Culling.obj
 0001:0002b600       __unwindfunclet$??1SDetailedCullData@SpeedTree@@QAE@XZ$0 1002c600 f   Culling.obj
 0001:0002b60b       __ehhandler$??1SDetailedCullData@SpeedTree@@QAE@XZ 1002c60b f   Culling.obj
 0001:0002b630       __unwindfunclet$??0SDetailedCullData@SpeedTree@@QAE@ABU01@@Z$0 1002c630 f   Culling.obj
 0001:0002b63e       __ehhandler$??0SDetailedCullData@SpeedTree@@QAE@ABU01@@Z 1002c63e f   Culling.obj
 0001:0002b660       __unwindfunclet$??0?$CCellHeapMgr@VCCell@SpeedTree@@@SpeedTree@@QAE@ABV01@@Z$0 1002c660 f   Culling.obj
 0001:0002b66e       __ehhandler$??0?$CCellHeapMgr@VCCell@SpeedTree@@@SpeedTree@@QAE@ABV01@@Z 1002c66e f   Culling.obj
 0001:0002b690       __unwindfunclet$??_G?$CMap@USRowCol@SpeedTree@@PAVCCell@2@V?$CLess@USRowCol@SpeedTree@@@2@$00@SpeedTree@@UAEPAXI@Z$0 1002c690 f   Culling.obj
 0001:0002b69b       __ehhandler$??_G?$CMap@USRowCol@SpeedTree@@PAVCCell@2@V?$CLess@USRowCol@SpeedTree@@@2@$00@SpeedTree@@UAEPAXI@Z 1002c69b f   Culling.obj
 0001:0002b6c0       __unwindfunclet$??_E?$CMap@USRowCol@SpeedTree@@PAVCCell@2@V?$CLess@USRowCol@SpeedTree@@@2@$00@SpeedTree@@UAEPAXI@Z$0 1002c6c0 f   Culling.obj
 0001:0002b6cb       __ehhandler$??_E?$CMap@USRowCol@SpeedTree@@PAVCCell@2@V?$CLess@USRowCol@SpeedTree@@@2@$00@SpeedTree@@UAEPAXI@Z 1002c6cb f   Culling.obj
 0001:0002b6f0       __unwindfunclet$??0CVisibleInstances@SpeedTree@@QAE@ABV01@@Z$0 1002c6f0 f   Culling.obj
 0001:0002b6fb       __unwindfunclet$??0CVisibleInstances@SpeedTree@@QAE@ABV01@@Z$1 1002c6fb f   Culling.obj
 0001:0002b706       __unwindfunclet$??0CVisibleInstances@SpeedTree@@QAE@ABV01@@Z$2 1002c706 f   Culling.obj
 0001:0002b711       __unwindfunclet$??0CVisibleInstances@SpeedTree@@QAE@ABV01@@Z$3 1002c711 f   Culling.obj
 0001:0002b71f       __ehhandler$??0CVisibleInstances@SpeedTree@@QAE@ABV01@@Z 1002c71f f   Culling.obj
 0001:0002b740       __unwindfunclet$??0CVisibleInstances@SpeedTree@@QAE@W4EPopulationType@1@_N@Z$0 1002c740 f   Culling.obj
 0001:0002b74b       __unwindfunclet$??0CVisibleInstances@SpeedTree@@QAE@W4EPopulationType@1@_N@Z$1 1002c74b f   Culling.obj
 0001:0002b756       __ehhandler$??0CVisibleInstances@SpeedTree@@QAE@W4EPopulationType@1@_N@Z 1002c756 f   Culling.obj
 0001:0002b780       __unwindfunclet$??1CVisibleInstances@SpeedTree@@UAE@XZ$0 1002c780 f   Culling.obj
 0001:0002b78b       __unwindfunclet$??1CVisibleInstances@SpeedTree@@UAE@XZ$1 1002c78b f   Culling.obj
 0001:0002b796       __unwindfunclet$??1CVisibleInstances@SpeedTree@@UAE@XZ$2 1002c796 f   Culling.obj
 0001:0002b7a1       __unwindfunclet$??1CVisibleInstances@SpeedTree@@UAE@XZ$3 1002c7a1 f   Culling.obj
 0001:0002b7af       __unwindfunclet$??1CVisibleInstances@SpeedTree@@UAE@XZ$5 1002c7af f   Culling.obj
 0001:0002b7ba       __ehhandler$??1CVisibleInstances@SpeedTree@@UAE@XZ 1002c7ba f   Culling.obj
 0001:0002b7e0       __unwindfunclet$?ComputeCullParameters@STreeInstance@SpeedTree@@QAEXXZ$0 1002c7e0 f   Culling.obj
 0001:0002b7e8       __ehhandler$?ComputeCullParameters@STreeInstance@SpeedTree@@QAEXXZ 1002c7e8 f   Culling.obj
 0001:0002b810       __unwindfunclet$?RoughCullCells@CVisibleInstances@SpeedTree@@QAE_NABVCView@2@HM@Z$0 1002c810 f   Culling.obj
 0001:0002b818       __ehhandler$?RoughCullCells@CVisibleInstances@SpeedTree@@QAE_NABVCView@2@HM@Z 1002c818 f   Culling.obj
 0001:0002b840       __unwindfunclet$??H?$CBasicFixedString@$0BAA@@SpeedTree@@QBE?AV01@ABV01@@Z$0 1002c840 f   Culling.obj
 0001:0002b84b       __ehhandler$??H?$CBasicFixedString@$0BAA@@SpeedTree@@QBE?AV01@ABV01@@Z 1002c84b f   Culling.obj
 0001:0002b880       __unwindfunclet$??H?$CBasicFixedString@$0BAA@@SpeedTree@@QBE?AV01@PBD@Z$0 1002c880 f   Culling.obj
 0001:0002b88b       __ehhandler$??H?$CBasicFixedString@$0BAA@@SpeedTree@@QBE?AV01@PBD@Z 1002c88b f   Culling.obj
 0001:0002b8c0       __unwindfunclet$?Format@?$CBasicFixedString@$0BAA@@SpeedTree@@SA?AV12@PBDZZ$0 1002c8c0 f   Culling.obj
 0001:0002b8cb       __ehhandler$?Format@?$CBasicFixedString@$0BAA@@SpeedTree@@SA?AV12@PBDZZ 1002c8cb f   Culling.obj
 0001:0002b900       __unwindfunclet$?Extension@?$CBasicFixedString@$0BAA@@SpeedTree@@QBE?AV12@D@Z$0 1002c900 f   Culling.obj
 0001:0002b90b       __ehhandler$?Extension@?$CBasicFixedString@$0BAA@@SpeedTree@@QBE?AV12@D@Z 1002c90b f   Culling.obj
 0001:0002b940       __unwindfunclet$??1?$CBasicString@$00@SpeedTree@@UAE@XZ$0 1002c940 f   Culling.obj
 0001:0002b948       __ehhandler$??1?$CBasicString@$00@SpeedTree@@UAE@XZ 1002c948 f   Culling.obj
 0001:0002b970       __unwindfunclet$??1?$CMap@PBVCCore@SpeedTree@@V?$CArray@USInstance@SpeedTree@@$00@2@V?$CLess@PBVCCore@SpeedTree@@@2@$00@SpeedTree@@UAE@XZ$0 1002c970 f   Culling.obj
 0001:0002b97b       __ehhandler$??1?$CMap@PBVCCore@SpeedTree@@V?$CArray@USInstance@SpeedTree@@$00@2@V?$CLess@PBVCCore@SpeedTree@@@2@$00@SpeedTree@@UAE@XZ 1002c97b f   Culling.obj
 0001:0002b9a0       __unwindfunclet$??1?$CCellHeapMgr@VCCell@SpeedTree@@@SpeedTree@@QAE@XZ$0 1002c9a0 f   Culling.obj
 0001:0002b9ae       __unwindfunclet$??1?$CCellHeapMgr@VCCell@SpeedTree@@@SpeedTree@@QAE@XZ$1 1002c9ae f   Culling.obj
 0001:0002b9bc       __ehhandler$??1?$CCellHeapMgr@VCCell@SpeedTree@@@SpeedTree@@QAE@XZ 1002c9bc f   Culling.obj
 0001:0002b9e0       __unwindfunclet$??0?$CMap@USRowCol@SpeedTree@@PAVCCell@2@V?$CLess@USRowCol@SpeedTree@@@2@$00@SpeedTree@@QAE@ABV01@@Z$0 1002c9e0 f   Culling.obj
 0001:0002b9ee       __ehhandler$??0?$CMap@USRowCol@SpeedTree@@PAVCCell@2@V?$CLess@USRowCol@SpeedTree@@@2@$00@SpeedTree@@QAE@ABV01@@Z 1002c9ee f   Culling.obj
 0001:0002ba10       __unwindfunclet$??1?$CMap@USRowCol@SpeedTree@@PAVCCell@2@V?$CLess@USRowCol@SpeedTree@@@2@$00@SpeedTree@@UAE@XZ$0 1002ca10 f   Culling.obj
 0001:0002ba1b       __ehhandler$??1?$CMap@USRowCol@SpeedTree@@PAVCCell@2@V?$CLess@USRowCol@SpeedTree@@@2@$00@SpeedTree@@UAE@XZ 1002ca1b f   Culling.obj
 0001:0002ba40       __unwindfunclet$??4?$CMap@USRowCol@SpeedTree@@PAVCCell@2@V?$CLess@USRowCol@SpeedTree@@@2@$00@SpeedTree@@QAEAAV01@ABV01@@Z$0 1002ca40 f   Culling.obj
 0001:0002ba48       __unwindfunclet$??4?$CMap@USRowCol@SpeedTree@@PAVCCell@2@V?$CLess@USRowCol@SpeedTree@@@2@$00@SpeedTree@@QAEAAV01@ABV01@@Z$1 1002ca48 f   Culling.obj
 0001:0002ba50       __ehhandler$??4?$CMap@USRowCol@SpeedTree@@PAVCCell@2@V?$CLess@USRowCol@SpeedTree@@@2@$00@SpeedTree@@QAEAAV01@ABV01@@Z 1002ca50 f   Culling.obj
 0001:0002ba70       __unwindfunclet$??1SHeapBlock@?$CCellHeapMgr@VCCell@SpeedTree@@@SpeedTree@@QAE@XZ$0 1002ca70 f   Culling.obj
 0001:0002ba78       __ehhandler$??1SHeapBlock@?$CCellHeapMgr@VCCell@SpeedTree@@@SpeedTree@@QAE@XZ 1002ca78 f   Culling.obj
 0001:0002baa0       __unwindfunclet$??0SHeapBlock@?$CCellHeapMgr@VCCell@SpeedTree@@@SpeedTree@@QAE@ABU012@@Z$0 1002caa0 f   Culling.obj
 0001:0002baa8       __ehhandler$??0SHeapBlock@?$CCellHeapMgr@VCCell@SpeedTree@@@SpeedTree@@QAE@ABU012@@Z 1002caa8 f   Culling.obj
 0001:0002bad0       __unwindfunclet$??0?$CBasicString@$00@SpeedTree@@QAE@PBD@Z$0 1002cad0 f   Culling.obj
 0001:0002bad8       __ehhandler$??0?$CBasicString@$00@SpeedTree@@QAE@PBD@Z 1002cad8 f   Culling.obj
 0001:0002bb00       __unwindfunclet$??4?$CMap@PBVCCore@SpeedTree@@V?$CArray@USInstance@SpeedTree@@$00@2@V?$CLess@PBVCCore@SpeedTree@@@2@$00@SpeedTree@@QAEAAV01@ABV01@@Z$0 1002cb00 f   Culling.obj
 0001:0002bb08       __unwindfunclet$??4?$CMap@PBVCCore@SpeedTree@@V?$CArray@USInstance@SpeedTree@@$00@2@V?$CLess@PBVCCore@SpeedTree@@@2@$00@SpeedTree@@QAEAAV01@ABV01@@Z$1 1002cb08 f   Culling.obj
 0001:0002bb10       __ehhandler$??4?$CMap@PBVCCore@SpeedTree@@V?$CArray@USInstance@SpeedTree@@$00@2@V?$CLess@PBVCCore@SpeedTree@@@2@$00@SpeedTree@@QAEAAV01@ABV01@@Z 1002cb10 f   Culling.obj
 0001:0002bb30       __unwindfunclet$?SetExternalMemory@?$CArray@USInstance@SpeedTree@@$00@SpeedTree@@QAEXPAEI@Z$0 1002cb30 f   Culling.obj
 0001:0002bb4a       __ehhandler$?SetExternalMemory@?$CArray@USInstance@SpeedTree@@$00@SpeedTree@@QAEXPAEI@Z 1002cb4a f   Culling.obj
 0001:0002bb70       __unwindfunclet$?SetExternalMemory@?$CArray@VCCell@SpeedTree@@$00@SpeedTree@@QAEXPAEI@Z$0 1002cb70 f   Culling.obj
 0001:0002bb8d       __ehhandler$?SetExternalMemory@?$CArray@VCCell@SpeedTree@@$00@SpeedTree@@QAEXPAEI@Z 1002cb8d f   Culling.obj
 0001:0002bbb0       __unwindfunclet$??0CCell@SpeedTree@@QAE@XZ$0 1002cbb0 f   Culling.obj
 0001:0002bbb8       __ehhandler$??0CCell@SpeedTree@@QAE@XZ 1002cbb8 f   Culling.obj
 0001:0002bbe0       __unwindfunclet$??1CCell@SpeedTree@@QAE@XZ$0 1002cbe0 f   Culling.obj
 0001:0002bbe8       __unwindfunclet$??1CCell@SpeedTree@@QAE@XZ$1 1002cbe8 f   Culling.obj
 0001:0002bbf3       __unwindfunclet$??1CCell@SpeedTree@@QAE@XZ$2 1002cbf3 f   Culling.obj
 0001:0002bbfe       __unwindfunclet$??1CCell@SpeedTree@@QAE@XZ$5 1002cbfe f   Culling.obj
 0001:0002bc09       __ehhandler$??1CCell@SpeedTree@@QAE@XZ 1002cc09 f   Culling.obj
 0001:0002bc30       __unwindfunclet$?Allocate@?$CArray@VCCell@SpeedTree@@$00@SpeedTree@@IAEPAVCCell@2@I@Z$0 1002cc30 f   Culling.obj
 0001:0002bc3b       __ehhandler$?Allocate@?$CArray@VCCell@SpeedTree@@$00@SpeedTree@@IAEPAVCCell@2@I@Z 1002cc3b f   Culling.obj
 0001:0002bc60       __unwindfunclet$?Grow@?$CCellHeapMgr@VCCell@SpeedTree@@@SpeedTree@@AAEXXZ$0 1002cc60 f   Culling.obj
 0001:0002bc71       __ehhandler$?Grow@?$CCellHeapMgr@VCCell@SpeedTree@@@SpeedTree@@AAEXXZ 1002cc71 f   Culling.obj
 0001:0002bc90       __unwindfunclet$?SetExternalMemory@?$CArray@USDetailedCullData@SpeedTree@@$00@SpeedTree@@QAEXPAEI@Z$0 1002cc90 f   Culling.obj
 0001:0002bcaa       __ehhandler$?SetExternalMemory@?$CArray@USDetailedCullData@SpeedTree@@$00@SpeedTree@@QAEXPAEI@Z 1002ccaa f   Culling.obj
 0001:0002bcd0       __unwindfunclet$?Allocate@?$CArray@USDetailedCullData@SpeedTree@@$00@SpeedTree@@IAEPAUSDetailedCullData@2@I@Z$0 1002ccd0 f   Culling.obj
 0001:0002bcdb       __ehhandler$?Allocate@?$CArray@USDetailedCullData@SpeedTree@@$00@SpeedTree@@IAEPAUSDetailedCullData@2@I@Z 1002ccdb f   Culling.obj
 0001:0002bd00       __unwindfunclet$?SetExternalMemory@?$CArray@V?$CBasicFixedString@$0BAA@@SpeedTree@@$00@SpeedTree@@QAEXPAEI@Z$0 1002cd00 f   Culling.obj
 0001:0002bd1d       __ehhandler$?SetExternalMemory@?$CArray@V?$CBasicFixedString@$0BAA@@SpeedTree@@$00@SpeedTree@@QAEXPAEI@Z 1002cd1d f   Culling.obj
 0001:0002bd40       __unwindfunclet$?Allocate@?$CArray@USInstance@SpeedTree@@$00@SpeedTree@@IAEPAUSInstance@2@I@Z$0 1002cd40 f   Culling.obj
 0001:0002bd4b       __ehhandler$?Allocate@?$CArray@USInstance@SpeedTree@@$00@SpeedTree@@IAEPAUSInstance@2@I@Z 1002cd4b f   Culling.obj
 0001:0002bd70       __unwindfunclet$??$st_new_array@VCCell@SpeedTree@@@SpeedTree@@YAPAVCCell@0@IPBDW4EAllocationType@0@@Z$0 1002cd70 f   Culling.obj
 0001:0002bd8a       __ehhandler$??$st_new_array@VCCell@SpeedTree@@@SpeedTree@@YAPAVCCell@0@IPBDW4EAllocationType@0@@Z 1002cd8a f   Culling.obj
 0001:0002bdb0       __unwindfunclet$??$st_new_array@USDetailedCullData@SpeedTree@@@SpeedTree@@YAPAUSDetailedCullData@0@IPBDW4EAllocationType@0@@Z$0 1002cdb0 f   Culling.obj
 0001:0002bdc7       __ehhandler$??$st_new_array@USDetailedCullData@SpeedTree@@@SpeedTree@@YAPAUSDetailedCullData@0@IPBDW4EAllocationType@0@@Z 1002cdc7 f   Culling.obj
 0001:0002bdf0       __unwindfunclet$?Allocate@?$CArray@V?$CBasicFixedString@$0BAA@@SpeedTree@@$00@SpeedTree@@IAEPAV?$CBasicFixedString@$0BAA@@2@I@Z$0 1002cdf0 f   Culling.obj
 0001:0002bdfb       __ehhandler$?Allocate@?$CArray@V?$CBasicFixedString@$0BAA@@SpeedTree@@$00@SpeedTree@@IAEPAV?$CBasicFixedString@$0BAA@@2@I@Z 1002cdfb f   Culling.obj
 0001:0002be20       __unwindfunclet$??$st_new_array@USInstance@SpeedTree@@@SpeedTree@@YAPAUSInstance@0@IPBDW4EAllocationType@0@@Z$0 1002ce20 f   Culling.obj
 0001:0002be37       __ehhandler$??$st_new_array@USInstance@SpeedTree@@@SpeedTree@@YAPAUSInstance@0@IPBDW4EAllocationType@0@@Z 1002ce37 f   Culling.obj
 0001:0002be60       __unwindfunclet$??$st_new_array@V?$CBasicFixedString@$0BAA@@SpeedTree@@@SpeedTree@@YAPAV?$CBasicFixedString@$0BAA@@0@IPBDW4EAllocationType@0@@Z$0 1002ce60 f   Culling.obj
 0001:0002be7a       __ehhandler$??$st_new_array@V?$CBasicFixedString@$0BAA@@SpeedTree@@@SpeedTree@@YAPAV?$CBasicFixedString@$0BAA@@0@IPBDW4EAllocationType@0@@Z 1002ce7a f   Culling.obj
 0001:0002bea0       __unwindfunclet$?CollisionAdjust@CForest@SpeedTree@@QBE_NAAVVec3@2@ABVCVisibleInstances@2@H@Z$0 1002cea0 f   Forest.obj
 0001:0002bea8       __ehhandler$?CollisionAdjust@CForest@SpeedTree@@QBE_NAAVVec3@2@ABVCVisibleInstances@2@H@Z 1002cea8 f   Forest.obj
 0001:0002bed0       __unwindfunclet$?ComputeLightView@CForest@SpeedTree@@SA_NABVVec3@2@QBV32@MMAAVCView@2@M@Z$0 1002ced0 f   Forest.obj
 0001:0002bedb       __ehhandler$?ComputeLightView@CForest@SpeedTree@@SA_NABVVec3@2@QBV32@MMAAVCView@2@M@Z 1002cedb f   Forest.obj
 0001:0002bf00       __unwindfunclet$??0?$CStaticArray@USCollisionSort@@@SpeedTree@@QAE@IPBD_N@Z$0 1002cf00 f   Forest.obj
 0001:0002bf08       __ehhandler$??0?$CStaticArray@USCollisionSort@@@SpeedTree@@QAE@IPBD_N@Z 1002cf08 f   Forest.obj
 0001:0002bf30       __unwindfunclet$??1?$CStaticArray@USCollisionSort@@@SpeedTree@@UAE@XZ$0 1002cf30 f   Forest.obj
 0001:0002bf38       __ehhandler$??1?$CStaticArray@USCollisionSort@@@SpeedTree@@UAE@XZ 1002cf38 f   Forest.obj
 0001:0002bf60       __unwindfunclet$??1STerrainCullResults@SpeedTree@@QAE@XZ$0 1002cf60 f   Terrain.obj
 0001:0002bf68       __unwindfunclet$??1STerrainCullResults@SpeedTree@@QAE@XZ$1 1002cf68 f   Terrain.obj
 0001:0002bf73       __ehhandler$??1STerrainCullResults@SpeedTree@@QAE@XZ 1002cf73 f   Terrain.obj
 0001:0002bf90       __unwindfunclet$??0STerrainCullResults@SpeedTree@@QAE@ABU01@@Z$0 1002cf90 f   Terrain.obj
 0001:0002bf98       __unwindfunclet$??0STerrainCullResults@SpeedTree@@QAE@ABU01@@Z$1 1002cf98 f   Terrain.obj
 0001:0002bfa3       __ehhandler$??0STerrainCullResults@SpeedTree@@QAE@ABU01@@Z 1002cfa3 f   Terrain.obj
 0001:0002bfc0       __unwindfunclet$??_G?$CMap@USRowCol@SpeedTree@@VCTerrainCell@2@V?$CLess@USRowCol@SpeedTree@@@2@$00@SpeedTree@@UAEPAXI@Z$0 1002cfc0 f   Terrain.obj
 0001:0002bfcb       __ehhandler$??_G?$CMap@USRowCol@SpeedTree@@VCTerrainCell@2@V?$CLess@USRowCol@SpeedTree@@@2@$00@SpeedTree@@UAEPAXI@Z 1002cfcb f   Terrain.obj
 0001:0002bff0       __unwindfunclet$??_E?$CMap@USRowCol@SpeedTree@@VCTerrainCell@2@V?$CLess@USRowCol@SpeedTree@@@2@$00@SpeedTree@@UAEPAXI@Z$0 1002cff0 f   Terrain.obj
 0001:0002bffb       __ehhandler$??_E?$CMap@USRowCol@SpeedTree@@VCTerrainCell@2@V?$CLess@USRowCol@SpeedTree@@@2@$00@SpeedTree@@UAEPAXI@Z 1002cffb f   Terrain.obj
 0001:0002c020       __unwindfunclet$??_G?$CCellContainer@VCTerrainCell@SpeedTree@@@SpeedTree@@UAEPAXI@Z$1 1002d020 f   Terrain.obj
 0001:0002c02b       __ehhandler$??_G?$CCellContainer@VCTerrainCell@SpeedTree@@@SpeedTree@@UAEPAXI@Z 1002d02b f   Terrain.obj
 0001:0002c050       __unwindfunclet$??_E?$CCellContainer@VCTerrainCell@SpeedTree@@@SpeedTree@@UAEPAXI@Z$1 1002d050 f   Terrain.obj
 0001:0002c05b       __ehhandler$??_E?$CCellContainer@VCTerrainCell@SpeedTree@@@SpeedTree@@UAEPAXI@Z 1002d05b f   Terrain.obj
 0001:0002c080       __unwindfunclet$??0CTerrain@SpeedTree@@QAE@ABV01@@Z$0 1002d080 f   Terrain.obj
 0001:0002c08b       __unwindfunclet$??0CTerrain@SpeedTree@@QAE@ABV01@@Z$1 1002d08b f   Terrain.obj
 0001:0002c096       __ehhandler$??0CTerrain@SpeedTree@@QAE@ABV01@@Z 1002d096 f   Terrain.obj
 0001:0002c0c0       __unwindfunclet$??1CTerrain@SpeedTree@@UAE@XZ$0 1002d0c0 f   Terrain.obj
 0001:0002c0cb       __unwindfunclet$??1CTerrain@SpeedTree@@UAE@XZ$1 1002d0cb f   Terrain.obj
 0001:0002c0d6       __unwindfunclet$??1CTerrain@SpeedTree@@UAE@XZ$4 1002d0d6 f   Terrain.obj
 0001:0002c0e1       __ehhandler$??1CTerrain@SpeedTree@@UAE@XZ 1002d0e1 f   Terrain.obj
 0001:0002c100       __unwindfunclet$?CullAndComputeLOD@CTerrain@SpeedTree@@UAEXABVCView@2@HAAUSTerrainCullResults@2@@Z$0 1002d100 f   Terrain.obj
 0001:0002c108       __unwindfunclet$?CullAndComputeLOD@CTerrain@SpeedTree@@UAEXABVCView@2@HAAUSTerrainCullResults@2@@Z$1 1002d108 f   Terrain.obj
 0001:0002c113       __ehhandler$?CullAndComputeLOD@CTerrain@SpeedTree@@UAEXABVCView@2@HAAUSTerrainCullResults@2@@Z 1002d113 f   Terrain.obj
 0001:0002c140       __unwindfunclet$??0?$CMap@USRowCol@SpeedTree@@VCTerrainCell@2@V?$CLess@USRowCol@SpeedTree@@@2@$00@SpeedTree@@QAE@ABV01@@Z$0 1002d140 f   Terrain.obj
 0001:0002c14e       __ehhandler$??0?$CMap@USRowCol@SpeedTree@@VCTerrainCell@2@V?$CLess@USRowCol@SpeedTree@@@2@$00@SpeedTree@@QAE@ABV01@@Z 1002d14e f   Terrain.obj
 0001:0002c170       __unwindfunclet$??1?$CMap@USRowCol@SpeedTree@@VCTerrainCell@2@V?$CLess@USRowCol@SpeedTree@@@2@$00@SpeedTree@@UAE@XZ$0 1002d170 f   Terrain.obj
 0001:0002c17b       __ehhandler$??1?$CMap@USRowCol@SpeedTree@@VCTerrainCell@2@V?$CLess@USRowCol@SpeedTree@@@2@$00@SpeedTree@@UAE@XZ 1002d17b f   Terrain.obj
 0001:0002c1a0       __unwindfunclet$??4?$CMap@USRowCol@SpeedTree@@VCTerrainCell@2@V?$CLess@USRowCol@SpeedTree@@@2@$00@SpeedTree@@QAEAAV01@ABV01@@Z$0 1002d1a0 f   Terrain.obj
 0001:0002c1a8       __unwindfunclet$??4?$CMap@USRowCol@SpeedTree@@VCTerrainCell@2@V?$CLess@USRowCol@SpeedTree@@@2@$00@SpeedTree@@QAEAAV01@ABV01@@Z$1 1002d1a8 f   Terrain.obj
 0001:0002c1b0       __ehhandler$??4?$CMap@USRowCol@SpeedTree@@VCTerrainCell@2@V?$CLess@USRowCol@SpeedTree@@@2@$00@SpeedTree@@QAEAAV01@ABV01@@Z 1002d1b0 f   Terrain.obj
 0001:0002c1d0       __unwindfunclet$??1?$CCellContainer@VCTerrainCell@SpeedTree@@@SpeedTree@@UAE@XZ$1 1002d1d0 f   Terrain.obj
 0001:0002c1db       __ehhandler$??1?$CCellContainer@VCTerrainCell@SpeedTree@@@SpeedTree@@UAE@XZ 1002d1db f   Terrain.obj
 0001:0002c200       __unwindfunclet$?Allocate@?$CMap@USRowCol@SpeedTree@@VCTerrainCell@2@V?$CLess@USRowCol@SpeedTree@@@2@$00@SpeedTree@@IAEPAXABUSRowCol@2@PAX@Z$0 1002d200 f   Terrain.obj
 0001:0002c211       __ehhandler$?Allocate@?$CMap@USRowCol@SpeedTree@@VCTerrainCell@2@V?$CLess@USRowCol@SpeedTree@@@2@$00@SpeedTree@@IAEPAXABUSRowCol@2@PAX@Z 1002d211 f   Terrain.obj
 0001:0002c230       ??__Ec_chFolderSeparator@SpeedTree@@YAXXZ 1002d230 f   Culling.obj
 0001:0002c250       ??__Ec_vRHCS_Yup_Out@SpeedTree@@YAXXZ 1002d250 f   Culling.obj
 0001:0002c280       ??__Ec_vRHCS_Yup_Right@SpeedTree@@YAXXZ 1002d280 f   Culling.obj
 0001:0002c2a0       ??__Ec_vRHCS_Yup_Up@SpeedTree@@YAXXZ 1002d2a0 f   Culling.obj
 0001:0002c2c0       ??__Ec_vLHCS_Yup_Out@SpeedTree@@YAXXZ 1002d2c0 f   Culling.obj
 0001:0002c2e0       ??__Ec_vLHCS_Yup_Right@SpeedTree@@YAXXZ 1002d2e0 f   Culling.obj
 0001:0002c300       ??__Ec_vLHCS_Yup_Up@SpeedTree@@YAXXZ 1002d300 f   Culling.obj
 0001:0002c320       ??__Ec_vLHCS_Zup_Out@SpeedTree@@YAXXZ 1002d320 f   Culling.obj
 0001:0002c350       ??__Ec_vLHCS_Zup_Right@SpeedTree@@YAXXZ 1002d350 f   Culling.obj
 0001:0002c370       ??__Ec_vLHCS_Zup_Up@SpeedTree@@YAXXZ 1002d370 f   Culling.obj
 0001:0002c390       ??__Ec_asInstanceStreamDesc@SpeedTree@@YAXXZ 1002d390 f   Culling.obj
 0001:0002c4f0       ??__Ec_chFolderSeparator@SpeedTree@@YAXXZ 1002d4f0 f   Forest.obj
 0001:0002c510       ??__Ec_vRHCS_Yup_Out@SpeedTree@@YAXXZ 1002d510 f   Forest.obj
 0001:0002c540       ??__Ec_vRHCS_Yup_Right@SpeedTree@@YAXXZ 1002d540 f   Forest.obj
 0001:0002c560       ??__Ec_vRHCS_Yup_Up@SpeedTree@@YAXXZ 1002d560 f   Forest.obj
 0001:0002c580       ??__Ec_vLHCS_Yup_Out@SpeedTree@@YAXXZ 1002d580 f   Forest.obj
 0001:0002c5a0       ??__Ec_vLHCS_Yup_Right@SpeedTree@@YAXXZ 1002d5a0 f   Forest.obj
 0001:0002c5c0       ??__Ec_vLHCS_Yup_Up@SpeedTree@@YAXXZ 1002d5c0 f   Forest.obj
 0001:0002c5e0       ??__Ec_vLHCS_Zup_Out@SpeedTree@@YAXXZ 1002d5e0 f   Forest.obj
 0001:0002c610       ??__Ec_vLHCS_Zup_Right@SpeedTree@@YAXXZ 1002d610 f   Forest.obj
 0001:0002c630       ??__Ec_vLHCS_Zup_Up@SpeedTree@@YAXXZ 1002d630 f   Forest.obj
 0001:0002c650       ??__Ec_asInstanceStreamDesc@SpeedTree@@YAXXZ 1002d650 f   Forest.obj
 0001:0002c7b0       ??__Ec_chFolderSeparator@SpeedTree@@YAXXZ 1002d7b0 f   Terrain.obj
 0001:0002c7d0       ??__Ec_vRHCS_Yup_Out@SpeedTree@@YAXXZ 1002d7d0 f   Terrain.obj
 0001:0002c800       ??__Ec_vRHCS_Yup_Right@SpeedTree@@YAXXZ 1002d800 f   Terrain.obj
 0001:0002c820       ??__Ec_vRHCS_Yup_Up@SpeedTree@@YAXXZ 1002d820 f   Terrain.obj
 0001:0002c840       ??__Ec_vLHCS_Yup_Out@SpeedTree@@YAXXZ 1002d840 f   Terrain.obj
 0001:0002c860       ??__Ec_vLHCS_Yup_Right@SpeedTree@@YAXXZ 1002d860 f   Terrain.obj
 0001:0002c880       ??__Ec_vLHCS_Yup_Up@SpeedTree@@YAXXZ 1002d880 f   Terrain.obj
 0001:0002c8a0       ??__Ec_vLHCS_Zup_Out@SpeedTree@@YAXXZ 1002d8a0 f   Terrain.obj
 0001:0002c8d0       ??__Ec_vLHCS_Zup_Right@SpeedTree@@YAXXZ 1002d8d0 f   Terrain.obj
 0001:0002c8f0       ??__Ec_vLHCS_Zup_Up@SpeedTree@@YAXXZ 1002d8f0 f   Terrain.obj
 0001:0002c910       ??__Ec_asInstanceStreamDesc@SpeedTree@@YAXXZ 1002d910 f   Terrain.obj
